                              1 ;--------------------------------------------------------
                              2 ; File Created by SDCC : free open source ANSI-C Compiler
                              3 ; Version 3.5.5 #9498 (Linux)
                              4 ;--------------------------------------------------------
                              5 	.module GameFunctions
                              6 	.optsdcc -mz80
                              7 	
                              8 ;--------------------------------------------------------
                              9 ; Public variables in this module
                             10 ;--------------------------------------------------------
                             11 	.globl _game_interrupt_handler
                             12 	.globl _level_init_palettes
                             13 	.globl _cpct_akp_stop
                             14 	.globl _cpct_akp_musicPlay
                             15 	.globl _cpct_akp_musicInit
                             16 	.globl _cpct_setPALColour
                             17 	.globl _cpct_setPalette
                             18 	.globl _cpct_fw2hw
                             19 	.globl _cpct_setVideoMode
                             20 	.globl _cpct_setInterruptHandler
                             21 	.globl _cpct_disableFirmware
                             22 	.globl _camelot_warriors_mode
                             23 	.globl _currentMusic
                             24 	.globl _syncmusic_counter
                             25 	.globl _textures_on
                             26 	.globl _music_on
                             27 	.globl _r_counter
                             28 	.globl _movement_directionArray
                             29 	.globl _set_music
                             30 	.globl _remove_music
                             31 	.globl _stop_music
                             32 	.globl _game_init
                             33 ;--------------------------------------------------------
                             34 ; special function registers
                             35 ;--------------------------------------------------------
                             36 ;--------------------------------------------------------
                             37 ; ram data
                             38 ;--------------------------------------------------------
                             39 	.area _DATA
   0000                      40 _r_counter::
   0000                      41 	.ds 2
   0002                      42 _music_on::
   0002                      43 	.ds 1
   0003                      44 _textures_on::
   0003                      45 	.ds 1
   0004                      46 _syncmusic_counter::
   0004                      47 	.ds 1
   0005                      48 _currentMusic::
   0005                      49 	.ds 2
   0007                      50 _camelot_warriors_mode::
   0007                      51 	.ds 1
                             52 ;--------------------------------------------------------
                             53 ; ram data
                             54 ;--------------------------------------------------------
                             55 	.area _INITIALIZED
                             56 ;--------------------------------------------------------
                             57 ; absolute external ram data
                             58 ;--------------------------------------------------------
                             59 	.area _DABS (ABS)
                             60 ;--------------------------------------------------------
                             61 ; global & static initialisations
                             62 ;--------------------------------------------------------
                             63 	.area _HOME
                             64 	.area _GSINIT
                             65 	.area _GSFINAL
                             66 	.area _GSINIT
                             67 ;--------------------------------------------------------
                             68 ; Home
                             69 ;--------------------------------------------------------
                             70 	.area _HOME
                             71 	.area _HOME
                             72 ;--------------------------------------------------------
                             73 ; code
                             74 ;--------------------------------------------------------
                             75 	.area _CODE
                             76 ;src/GameFunctions.c:19: void game_interrupt_handler(){
                             77 ;	---------------------------------
                             78 ; Function game_interrupt_handler
                             79 ; ---------------------------------
   0000                      80 _game_interrupt_handler::
                             81 ;src/GameFunctions.c:20: ++r_counter;
   0000 21r00r00      [10]   82 	ld	hl, #_r_counter+0
   0003 34            [11]   83 	inc	(hl)
   0004 20 04         [12]   84 	jr	NZ,00126$
   0006 21r01r00      [10]   85 	ld	hl, #_r_counter+1
   0009 34            [11]   86 	inc	(hl)
   000A                      87 00126$:
                             88 ;src/GameFunctions.c:21: ++syncmusic_counter;
   000A 21r04r00      [10]   89 	ld	hl, #_syncmusic_counter+0
   000D 34            [11]   90 	inc	(hl)
                             91 ;src/GameFunctions.c:22: if(syncmusic_counter==6){
   000E 3Ar04r00      [13]   92 	ld	a,(#_syncmusic_counter + 0)
   0011 D6 06         [ 7]   93 	sub	a, #0x06
   0013 C0            [11]   94 	ret	NZ
                             95 ;src/GameFunctions.c:23: syncmusic_counter=0;
   0014 21r04r00      [10]   96 	ld	hl,#_syncmusic_counter + 0
   0017 36 00         [10]   97 	ld	(hl), #0x00
                             98 ;src/GameFunctions.c:24: if(currentMusic && music_on){
   0019 3Ar06r00      [13]   99 	ld	a,(#_currentMusic + 1)
   001C 21r05r00      [10]  100 	ld	hl,#_currentMusic + 0
   001F B6            [ 7]  101 	or	a,(hl)
   0020 C8            [11]  102 	ret	Z
   0021 3Ar02r00      [13]  103 	ld	a,(#_music_on + 0)
   0024 B7            [ 4]  104 	or	a, a
   0025 C8            [11]  105 	ret	Z
                            106 ;src/GameFunctions.c:25: cpct_akp_musicPlay();
   0026 CDr00r00      [17]  107 	call	_cpct_akp_musicPlay
                            108 ;src/GameFunctions.c:26: if (cpct_akp_songLoopTimes > 0){
   0029 3Ar00r00      [13]  109 	ld	a,(#_cpct_akp_songLoopTimes + 0)
   002C B7            [ 4]  110 	or	a, a
   002D C8            [11]  111 	ret	Z
                            112 ;src/GameFunctions.c:27: cpct_akp_musicInit(currentMusic);
   002E 2Ar05r00      [16]  113 	ld	hl,(_currentMusic)
   0031 E5            [11]  114 	push	hl
   0032 CDr00r00      [17]  115 	call	_cpct_akp_musicInit
   0035 F1            [10]  116 	pop	af
   0036 C9            [10]  117 	ret
                            118 ;src/GameFunctions.c:38: void set_music(void* m){
                            119 ;	---------------------------------
                            120 ; Function set_music
                            121 ; ---------------------------------
   0037                     122 _set_music::
                            123 ;src/GameFunctions.c:39: currentMusic=m;
   0037 21 02 00      [10]  124 	ld	hl, #2+0
   003A 39            [11]  125 	add	hl, sp
   003B 7E            [ 7]  126 	ld	a, (hl)
   003C 32r05r00      [13]  127 	ld	(#_currentMusic + 0),a
   003F 21 03 00      [10]  128 	ld	hl, #2+1
   0042 39            [11]  129 	add	hl, sp
   0043 7E            [ 7]  130 	ld	a, (hl)
   0044 32r06r00      [13]  131 	ld	(#_currentMusic + 1),a
                            132 ;src/GameFunctions.c:40: cpct_akp_musicInit(currentMusic);
   0047 2Ar05r00      [16]  133 	ld	hl,(_currentMusic)
   004A E5            [11]  134 	push	hl
   004B CDr00r00      [17]  135 	call	_cpct_akp_musicInit
   004E F1            [10]  136 	pop	af
   004F C9            [10]  137 	ret
   0050                     138 _movement_directionArray:
   0050 01                  139 	.db #0x01	;  1
   0051 00                  140 	.db #0x00	;  0
   0052 00                  141 	.db #0x00	;  0
   0053 FF                  142 	.db #0xFF	; -1
   0054 FF                  143 	.db #0xFF	; -1
   0055 00                  144 	.db #0x00	;  0
   0056 00                  145 	.db #0x00	;  0
   0057 01                  146 	.db #0x01	;  1
                            147 ;src/GameFunctions.c:43: void remove_music(){
                            148 ;	---------------------------------
                            149 ; Function remove_music
                            150 ; ---------------------------------
   0058                     151 _remove_music::
                            152 ;src/GameFunctions.c:44: cpct_akp_stop();
   0058 CDr00r00      [17]  153 	call	_cpct_akp_stop
                            154 ;src/GameFunctions.c:45: currentMusic=0;
   005B 21 00 00      [10]  155 	ld	hl,#0x0000
   005E 22r05r00      [16]  156 	ld	(_currentMusic),hl
   0061 C9            [10]  157 	ret
                            158 ;src/GameFunctions.c:48: void stop_music(){
                            159 ;	---------------------------------
                            160 ; Function stop_music
                            161 ; ---------------------------------
   0062                     162 _stop_music::
                            163 ;src/GameFunctions.c:49: cpct_akp_stop();
   0062 C3r00r00      [10]  164 	jp  _cpct_akp_stop
                            165 ;src/GameFunctions.c:52: void game_init(){
                            166 ;	---------------------------------
                            167 ; Function game_init
                            168 ; ---------------------------------
   0065                     169 _game_init::
                            170 ;src/GameFunctions.c:53: cpct_disableFirmware();
   0065 CDr00r00      [17]  171 	call	_cpct_disableFirmware
                            172 ;src/GameFunctions.c:54: cpct_setVideoMode(0);
   0068 2E 00         [ 7]  173 	ld	l,#0x00
   006A CDr00r00      [17]  174 	call	_cpct_setVideoMode
                            175 ;src/GameFunctions.c:56: cpct_fw2hw(g_palette,16);
   006D 21 10 00      [10]  176 	ld	hl,#0x0010
   0070 E5            [11]  177 	push	hl
   0071 21r00r00      [10]  178 	ld	hl,#_g_palette
   0074 E5            [11]  179 	push	hl
   0075 CDr00r00      [17]  180 	call	_cpct_fw2hw
                            181 ;src/GameFunctions.c:58: cpct_setInterruptHandler(game_interrupt_handler);
   0078 21r00r00      [10]  182 	ld	hl,#_game_interrupt_handler
   007B CDr00r00      [17]  183 	call	_cpct_setInterruptHandler
                            184 ;src/GameFunctions.c:59: level_init_palettes();
   007E CDr00r00      [17]  185 	call	_level_init_palettes
                            186 ;src/GameFunctions.c:60: cpct_setPalette(g_palette,16);
   0081 21 10 00      [10]  187 	ld	hl,#0x0010
   0084 E5            [11]  188 	push	hl
   0085 21r00r00      [10]  189 	ld	hl,#_g_palette
   0088 E5            [11]  190 	push	hl
   0089 CDr00r00      [17]  191 	call	_cpct_setPalette
                            192 ;src/GameFunctions.c:61: cpct_setBorder(g_palette[1]);
   008C 21r01r00      [10]  193 	ld	hl, #_g_palette + 1
   008F 46            [ 7]  194 	ld	b,(hl)
   0090 C5            [11]  195 	push	bc
   0091 33            [ 6]  196 	inc	sp
   0092 3E 10         [ 7]  197 	ld	a,#0x10
   0094 F5            [11]  198 	push	af
   0095 33            [ 6]  199 	inc	sp
   0096 CDr00r00      [17]  200 	call	_cpct_setPALColour
                            201 ;src/GameFunctions.c:63: music_on = 1;
   0099 21r02r00      [10]  202 	ld	hl,#_music_on + 0
   009C 36 01         [10]  203 	ld	(hl), #0x01
                            204 ;src/GameFunctions.c:64: textures_on = 1;
   009E 21r03r00      [10]  205 	ld	hl,#_textures_on + 0
   00A1 36 01         [10]  206 	ld	(hl), #0x01
                            207 ;src/GameFunctions.c:66: syncmusic_counter=0;
   00A3 21r04r00      [10]  208 	ld	hl,#_syncmusic_counter + 0
   00A6 36 00         [10]  209 	ld	(hl), #0x00
                            210 ;src/GameFunctions.c:67: currentMusic = 0;
   00A8 21 00 00      [10]  211 	ld	hl,#0x0000
   00AB 22r05r00      [16]  212 	ld	(_currentMusic),hl
                            213 ;src/GameFunctions.c:71: camelot_warriors_mode=0;
   00AE 21r07r00      [10]  214 	ld	hl,#_camelot_warriors_mode + 0
   00B1 36 00         [10]  215 	ld	(hl), #0x00
   00B3 C9            [10]  216 	ret
                            217 	.area _CODE
                            218 	.area _INITIALIZER
                            219 	.area _CABS (ABS)
