ASxxxx Linker V03.00 + NoICE + sdld,  page 1.
Hexadecimal  [32-Bits]

Area                                    Addr        Size        Decimal Bytes (Attributes)
--------------------------------        ----        ----        ------- ----- ------------
.  .ABS.                            00000000    00000000 =           0. bytes (ABS,CON)

      Value  Global                              Global Defined In Module
      -----  --------------------------------   ------------------------
     00000000  .__.ABS.                           cpct_random
     00000000  l__CABS                         
     00000000  l__DABS                         
     00000000  l__GSFINAL                      
     00000000  l__GSINIT                       
     00000000  l__HOME                         
     00000000  l__INITIALIZED                  
     00000000  l__INITIALIZER                  
     00000000  s__CABS                         
     00000000  s__DABS                         
     00000040  s__CODE                         
     000000F2  l__DATA                         
     00005A4F  l__CODE                         
     00005A8F  s__DATA                         
     00005B81  s__GSFINAL                      
     00005B81  s__GSINIT                       
     00005B81  s__HOME                         
     00005B81  s__INITIALIZED                  
     00005B81  s__INITIALIZER                  

ASxxxx Linker V03.00 + NoICE + sdld,  page 2.
Hexadecimal  [32-Bits]

Area                                    Addr        Size        Decimal Bytes (Attributes)
--------------------------------        ----        ----        ------- ----- ------------
_CODE                               00000040    00005A4F =       23119. bytes (REL,CON)

      Value  Global                              Global Defined In Module
      -----  --------------------------------   ------------------------
     00000040  _enemy_get_at                      Enemy
     0000004E  _enemy_init_enemies                Enemy
     0000006C  _abs                               Enemy
     00000073  _dist                              Enemy
     000000E4  _enemy_can_view                    Enemy
     0000025B  _enemy_new_enemy                   Enemy
     000002CB  _enemy_try_new_spawn               Enemy
     00000358  _enemy_roam                        Enemy
     00000623  _enemy_AI_passive                  Enemy
     00000636  _enemy_AI_aggressive               Enemy
     00000637  _enemy_AI_tactical                 Enemy
     00000638  _enemy_AI_shy                      Enemy
     00000639  _enemy_update                      Enemy
     00000677  _game_interrupt_handler            GameFunctions
     00000681  _game_init                         GameFunctions
     000006B6  _movement_directionArray           GameFunctions
     000006BE  _level_get_level                   Level
     000006C6  _level_palettes                    Level
     000006EA  _level_set_level                   Level
     000006F2  _level_init_palettes               Level
     0000071F  _setLevelPalette                   Level
     00000752  _level_load_level                  Level
     0000076D  _main                              main
     00000778  _map_get_seed                      Map
     00000780  _get_random_wall                   Map
     0000079D  _generate_map                      Map
     00000C52  _generate_exit_door                Map
     00000E06  _generate_level                    Map
     00000E10  _generate_level_with_seed          Map
     00000E31  _player_turn_left                  Player
     00000E5A  _player_position                   Player
     00000E5C  _player_direction                  Player
     00000E5E  _player_turn_right                 Player
     00000E87  _player_move_forward               Player
     00000EA2  _player_get_direction_index        Player
     00000EAA  _calculate_cells_in_view           Renderer
     00001056  _g_palette                         Renderer
     00001066  _g_colors                          Renderer
     00001076  _g_pixelMask                       Renderer
     00001078  _g_texturedWalls                   Renderer
     00001079  _cells_in_view_array               Renderer
     0000107B  _offsets_cells_in_view             Renderer
     00001080  _draw_column_to_buffer_untexture   Renderer
     000010F6  _draw_column_to_buffer_object      Renderer
     000010F7  _draw_column_to_buffer_enemy       Renderer
     0000123A  _draw_column_to_buffer             Renderer
     00001372  _render_draw_to_buffer             Renderer
     00001ECC  _draw_minimap_to_buffer            Renderer
     00002002  _state_ingame_enter                State_InGame
     0000201F  _state_ingame_return               State_InGame
ASxxxx Linker V03.00 + NoICE + sdld,  page 3.
Hexadecimal  [32-Bits]

Area                                    Addr        Size        Decimal Bytes (Attributes)
--------------------------------        ----        ----        ------- ----- ------------
_CODE                               00000040    00005A4F =       23119. bytes (REL,CON)

      Value  Global                              Global Defined In Module
      -----  --------------------------------   ------------------------
     00002025  _state_ingame_input                State_InGame
     000020AA  _state_ingame_update               State_InGame
     0000216A  _state_ingame_render               State_InGame
     00002195  _state_ingame_exit                 State_InGame
     00002196  _state_loadlevel_enter             State_LoadLevel
     000021D0  _state_loadlevel_return            State_LoadLevel
     000021D1  _state_loadlevel_input             State_LoadLevel
     000021D4  _state_loadlevel_update            State_LoadLevel
     000021D9  _state_loadlevel_render            State_LoadLevel
     000021DA  _state_loadlevel_exit              State_LoadLevel
     000021DB  _state_mainmenu_enter              State_MainMenu
     0000220E  _state_mainmenu_return             State_MainMenu
     00002211  _state_mainmenu_input              State_MainMenu
     00002240  _state_mainmenu_update             State_MainMenu
     00002281  _state_mainmenu_render             State_MainMenu
     00002284  _state_mainmenu_exit               State_MainMenu
     00002285  _statemanager_drop_state           StateManager
     000022DB  _stateArray                        StateManager
     00002313  _closeState                        StateManager
     00002314  _currentState                      StateManager
     00002315  _changeToState                     StateManager
     00002316  _inputReceived                     StateManager
     00002317  _gameRunning                       StateManager
     00002318  _last_keyboardStatusBuffer         StateManager
     00002322  _statemanager_change_state         StateManager
     0000236B  _statemanager_input_accepted       StateManager
     00002371  _statemanager_set_state            StateManager
     00002378  _scan_input                        StateManager
     000023D5  _statemanager_manage_input         StateManager
     00002402  _statemanager_render_state         StateManager
     00002421  _statemanager_close_state          StateManager
     00002427  _statemanager_update_state         StateManager
     00002443  _statemanager_exit_game            StateManager
     00002449  _statemanager_main_loop            StateManager
     0000245F  _state_options_enter               State_Options
     00002460  _state_options_return              State_Options
     00002461  _state_options_input               State_Options
     00002462  _state_options_update              State_Options
     00002463  _state_options_render              State_Options
     00002464  _state_options_exit                State_Options
     00002465  _state_pausemenu_enter             State_PauseMenu
     00002493  _state_pausemenu_return            State_PauseMenu
     00002496  _state_pausemenu_input             State_PauseMenu
     000024C5  _state_pausemenu_update            State_PauseMenu
     00002503  _state_pausemenu_render            State_PauseMenu
     00002506  _state_pausemenu_exit              State_PauseMenu
     0000251B  _integer_to_string                 StringUtils
     000025F9  _charArray                         StringUtils
     00002679  _i_to_s_buffer                     StringUtils
     00002682  _print_text                        StringUtils
     00002859  _print_transparent_text            StringUtils
ASxxxx Linker V03.00 + NoICE + sdld,  page 4.
Hexadecimal  [32-Bits]

Area                                    Addr        Size        Decimal Bytes (Attributes)
--------------------------------        ----        ----        ------- ----- ------------
_CODE                               00000040    00005A4F =       23119. bytes (REL,CON)

      Value  Global                              Global Defined In Module
      -----  --------------------------------   ------------------------
     000029B0  _uncompress_texture_rle            Textures
     00002A14  _theme_textures                    Textures
     00002A1C  _theme_textures_length             Textures
     00002A24  _enemy_textures                    Textures
     00002A2C  _enemy_textures_length             Textures
     00002A34  _uncompress_theme_textures         Textures
     00002A57  _uncompress_enemy_textures         Textures
     00002A7A  _uncompress_item_textures          Textures
     00002A7B  _renderCompass                     UI_Compass
     00002A97  _ui_gamemenu_init                  UI_GameMenu
     00002AA9  _ui_gamemenu_entriesPosition       UI_GameMenu
     00002AB7  _ui_gamemenu_entriesTextPosition   UI_GameMenu
     00002AC5  _ui_gamemenu_action_buttonText     UI_GameMenu
     00002ACB  _ui_gamemenu_buttonText            UI_GameMenu
     00002AD9  _ui_gamemenu_buttonWidths          UI_GameMenu
     00002B19  _ui_gamemenu_above_entry           UI_GameMenu
     00002B3A  _ui_gamemenu_below_entry           UI_GameMenu
     00002B51  _ui_gamemenu_next_entry            UI_GameMenu
     00002B5E  _ui_gamemenu_previous_entry        UI_GameMenu
     00002B6E  _ui_gamemenu_unselect_entry        UI_GameMenu
     00002B74  _ui_gamemenu_select_entry          UI_GameMenu
     00002B7A  _ui_gamemenu_render_button         UI_GameMenu
     00002BF1  _ui_gamemenu_render_refresh        UI_GameMenu
     00002C0A  _ui_gamemenu_render_all            UI_GameMenu
     00002C22  _ui_gamemenu_get_entry             UI_GameMenu
     00002C2A  _ui_gamemenu_is_selected           UI_GameMenu
     00002C32  _ui_gamemenu_update_action         UI_GameMenu
     00002CD2  _ui_gamemenu_get_movement          UI_GameMenu
     00002CDA  _ui_gamemenu_get_action            UI_GameMenu
     00002CE2  _ui_log_init                       UI_Log
     00002D24  _ui_log_add_log                    UI_Log
     00002D57  _ui_log_render                     UI_Log
     00002DA6  _ui_mainmenu_init                  UI_MainMenu
     00002DB6  _ui_mainmenu_entriesPosition       UI_MainMenu
     00002DC0  _ui_mainmenu_entriesTextPosition   UI_MainMenu
     00002DCA  _ui_mainmenu_buttonText            UI_MainMenu
     00002DFC  _ui_mainmenu_next_entry            UI_MainMenu
     00002E0A  _ui_mainmenu_previous_entry        UI_MainMenu
     00002E1A  _ui_mainmenu_unselect_entry        UI_MainMenu
     00002E20  _ui_mainmenu_select_entry          UI_MainMenu
     00002E26  _ui_mainmenu_render_button         UI_MainMenu
     00002E90  _ui_mainmenu_render_refresh        UI_MainMenu
     00002EA9  _ui_mainmenu_render_all            UI_MainMenu
     00002EC1  _ui_mainmenu_get_entry             UI_MainMenu
     00002EC9  _ui_mainmenu_is_selected           UI_MainMenu
     00002ED1  _ui_pausemenu_init                 UI_PauseMenu
     00002EE1  _ui_pausemenu_entriesPosition      UI_PauseMenu
     00002EE9  _ui_pausemenu_entriesTextPositio   UI_PauseMenu
     00002EF1  _ui_pausemenu_buttonText           UI_PauseMenu
     00002F1D  _ui_pausemenu_get_entry            UI_PauseMenu
     00002F25  _ui_pausemenu_is_selected          UI_PauseMenu
ASxxxx Linker V03.00 + NoICE + sdld,  page 5.
Hexadecimal  [32-Bits]

Area                                    Addr        Size        Decimal Bytes (Attributes)
--------------------------------        ----        ----        ------- ----- ------------
_CODE                               00000040    00005A4F =       23119. bytes (REL,CON)

      Value  Global                              Global Defined In Module
      -----  --------------------------------   ------------------------
     00002F2D  _ui_pausemenu_next_entry           UI_PauseMenu
     00002F3B  _ui_pausemenu_previous_entry       UI_PauseMenu
     00002F4B  _ui_pausemenu_select_entry         UI_PauseMenu
     00002F51  _ui_pausemenu_unselect_entry       UI_PauseMenu
     00002F57  _ui_pausemenu_render_button        UI_PauseMenu
     00002FC1  _ui_pausemenu_render_refresh       UI_PauseMenu
     00002FDA  _ui_pausemenu_render_all           UI_PauseMenu
     00002FF2  _ui_playerstats_render             UI_PlayerStats
     0000308A  _strings                           UI_PlayerStats
     000030C0  _compass_tileset                   compass
     000030C8  _compass_compass_0                 compass
     00003148  _compass_compass_1                 compass
     000031C8  _compass_compass_2                 compass
     00003248  _compass_compass_3                 compass
     000032C8  _level0_enemies                    level0_enemies
     00003550  _level1_enemies                    level1_enemies
     0000369B  _level2_enemies                    level2_enemies
     000037E6  _level3_enemies                    level3_enemies
     00003931  _typography_4x6_monospaced         typography_4x6_monospaced
     000039C7  _level0_walls                      level0_walls
     00003F84  _level1_walls                      level1_walls
     000047C0  _level2_walls                      level2_walls
     00004FEE  _level3_walls                      level3_walls
     000056E5  _cpct_scanKeyboard_f               cpct_keyboard
     000056E5  cpct_scanKeyboard_f_asm            cpct_keyboard
     0000574F  _cpct_isKeyPressed                 cpct_keyboard
     0000574F  cpct_isKeyPressed_asm              cpct_keyboard
     0000575B  _cpct_setPalette                   cpct_video
     00005772  _cpct_setPALColour                 cpct_video
     0000577E  _cpct_drawSprite                   cpct_sprites
     00005823  __moduchar                         
     0000582F  __moduint                          
     0000583A  __divuint                          
     00005842  __divuchar                         
     00005849  __divu8                            
     0000584C  __divu16                           
     0000587B  _cpct_fw2hw                        cpct_video
     0000588E  _cpct_keyboardStatusBuffer         cpct_keyboard
     00005898  __mulint                           
     000058A0  __mul16                            
     000058B4  _cpct_setSeed_mxor                 cpct_random
     000058B4  cpct_setSeed_mxor_asm              cpct_random
     000058BC  _cpct_restoreState_mxor_u8         cpct_random
     000058BC  cpct_restoreState_mxor_u8_asm      cpct_random
     000058C2  _cpct_getRandom_mxor_u8            cpct_random
     000058C2  cpct_getRandom_mxor_u8             cpct_random
     000058C3  cpct_randomIdx_mxor_u8             cpct_random
     000058E7  _cpct_nextRandom_mxor_u32          cpct_random
     000058E7  cpct_nextRandom_mxor_u32_asm       cpct_random
     0000590A  ___sdcc_call_hl                    
     0000590B  cpct_firmware2hw_colour            
ASxxxx Linker V03.00 + NoICE + sdld,  page 6.
Hexadecimal  [32-Bits]

Area                                    Addr        Size        Decimal Bytes (Attributes)
--------------------------------        ----        ----        ------- ----- ------------
_CODE                               00000040    00005A4F =       23119. bytes (REL,CON)

      Value  Global                              Global Defined In Module
      -----  --------------------------------   ------------------------
     00005926  _cpct_waitVSYNC                    cpct_video
     00005926  cpct_waitVSYNC_asm                 cpct_video
     0000592E  _cpct_setVideoMode                 cpct_video
     0000593C  _cpct_memcpy                       cpct_memutils
     00005944  _cpct_memset                       cpct_memutils
     00005952  _cpct_disableFirmware              cpct_firmware
     00005952  _cpct_removeInterruptHandler       cpct_firmware
     00005952  cpct_disableFirmware_asm           cpct_firmware
     00005952  cpct_removeInterruptHandler_asm    cpct_firmware
     00005962  _cpct_drawSolidBox                 cpct_sprites
     00005A1A  _cpct_mode_rom_status              cpct_firmware
     00005A1B  __divsint                          
     00005A24  __divschar                         
     00005A2B  __div8                             
     00005A2F  __div_signexte                     
     00005A33  __div16                            
     00005A59  __get_remainder                    
     00005A63  _cpct_setInterruptHandler          cpct_firmware
     00005A63  cpct_setInterruptHandler_asm       cpct_firmware
     00005A74  cpct_safeInterruptHandlerHook      cpct_firmware
     00005A8B  _cpct_mxor32_seed                  cpct_random

ASxxxx Linker V03.00 + NoICE + sdld,  page 7.
Hexadecimal  [32-Bits]

Area                                    Addr        Size        Decimal Bytes (Attributes)
--------------------------------        ----        ----        ------- ----- ------------
_DATA                               00005A8F    000000F2 =         242. bytes (REL,CON)

      Value  Global                              Global Defined In Module
      -----  --------------------------------   ------------------------
     00005A8F  _activeEnemies                     Enemy
     00005A90  _enemyArray                        Enemy
     00005B26  _r_counter                         GameFunctions
     00005B28  _current_level                     Level
     00005B29  _rand_seed                         Map
     00005B2A  _player_directionIndex             Player
     00005B2B  _updateRenderBuffer                State_InGame
     00005B2C  _action                            State_InGame
     00005B2D  _ui_gamemenu_lastEntry             UI_GameMenu
     00005B2E  _ui_gamemenu_entryIndex            UI_GameMenu
     00005B2F  _ui_gamemenu_entrySelected         UI_GameMenu
     00005B30  _ui_gamemenu_can_move              UI_GameMenu
     00005B31  _ui_gamemenu_action                UI_GameMenu
     00005B32  _ui_log_currentString              UI_Log
     00005B33  _ui_log_textStrings                UI_Log
     00005B7B  _ui_mainmenu_lastEntry             UI_MainMenu
     00005B7C  _ui_mainmenu_entryIndex            UI_MainMenu
     00005B7D  _ui_mainmenu_entrySelected         UI_MainMenu
     00005B7E  _ui_pausemenu_lastEntry            UI_PauseMenu
     00005B7F  _ui_pausemenu_entryIndex           UI_PauseMenu
     00005B80  _ui_pausemenu_entrySelected        UI_PauseMenu
ASxxxx Linker V03.00 + NoICE + sdld,  page 8.

Files Linked                              [ module(s) ]

obj/Enemy.rel                             [ Enemy ]
obj/GameFunctions.rel                     [ GameFunctions ]
obj/Item.rel                              [ Item ]
obj/Level.rel                             [ Level ]
obj/main.rel                              [ main ]
obj/Map.rel                               [ Map ]
obj/Player.rel                            [ Player ]
obj/Renderer.rel                          [ Renderer ]
obj/State_Credits.rel                     [ State_Credits ]
obj/State_InGame.rel                      [ State_InGame ]
obj/State_Intro.rel                       [ State_Intro ]
obj/State_LoadLevel.rel                   [ State_LoadLevel ]
obj/State_MainMenu.rel                    [ State_MainMenu ]
obj/StateManager.rel                      [ StateManager ]
obj/State_Options.rel                     [ State_Options ]
obj/State_PauseMenu.rel                   [ State_PauseMenu ]
obj/StringUtils.rel                       [ StringUtils ]
obj/Textures.rel                          [ Textures ]
obj/UI_Compass.rel                        [ UI_Compass ]
obj/UI_EnemyStats.rel                     [ UI_EnemyStats ]
obj/UI_GameMenu.rel                       [ UI_GameMenu ]
obj/UI_Log.rel                            [ UI_Log ]
obj/UI_MainMenu.rel                       [ UI_MainMenu ]
obj/UI_PauseMenu.rel                      [ UI_PauseMenu ]
obj/UI_PlayerStats.rel                    [ UI_PlayerStats ]
obj/textures/compass.rel                  [ compass ]
obj/textures/enemies/level0_enemies.rel   [ level0_enemies ]
obj/textures/enemies/level1_enemies.rel   [ level1_enemies ]
obj/textures/enemies/level2_enemies.rel   [ level2_enemies ]
obj/textures/enemies/level3_enemies.rel   [ level3_enemies ]
obj/textures/typography/typography_4x6_monospaced.rel
                                          [ typography_4x6_monospaced ]
obj/textures/walls/level0_walls.rel       [ level0_walls ]
obj/textures/walls/level1_walls.rel       [ level1_walls ]
obj/textures/walls/level2_walls.rel       [ level2_walls ]
obj/textures/walls/level3_walls.rel       [ level3_walls ]


Libraries Linked                          [ object file ]

/home/albert/cpctelera/cpctelera/cpctelera.lib
                                          [ cpct_scanKeyboard_f.rel ]
/home/albert/cpctelera/cpctelera/cpctelera.lib
                                          [ cpct_isKeyPressed.rel ]
/home/albert/cpctelera/cpctelera/cpctelera.lib
                                          [ cpct_setPalette_cbindings.rel ]
/home/albert/cpctelera/cpctelera/cpctelera.lib
                                          [ cpct_setPALColour_cbindings.rel ]
/home/albert/cpctelera/cpctelera/cpctelera.lib
                                          [ cpct_drawSprite_cbindings.rel ]
/home/albert/cpctelera/cpctelera/tools/sdcc-3.5.5/bin/../share/sdcc/lib/z80/z80.lib
                                          [ modunsigned.rel ]
/home/albert/cpctelera/cpctelera/tools/sdcc-3.5.5/bin/../share/sdcc/lib/z80/z80.lib
                                          [ divunsigned.rel ]
/home/albert/cpctelera/cpctelera/cpctelera.lib
                                          [ cpct_fw2hw_cbindings.rel ]
/home/albert/cpctelera/cpctelera/cpctelera.lib
                                          [ keyboard.rel ]
/home/albert/cpctelera/cpctelera/tools/sdcc-3.5.5/bin/../share/sdcc/lib/z80/z80.lib
                                          [ mul.rel ]
/home/albert/cpctelera/cpctelera/cpctelera.lib
                                          [ cpct_setSeed_mxor.rel ]
/home/albert/cpctelera/cpctelera/cpctelera.lib
                                          [ cpct_restoreState_mxor_u8.rel ]
/home/albert/cpctelera/cpctelera/cpctelera.lib
                                          [ cpct_getRandom_mxor_u8.rel ]
/home/albert/cpctelera/cpctelera/cpctelera.lib
                                          [ cpct_nextRandom_mxor_u32.rel ]
/home/albert/cpctelera/cpctelera/tools/sdcc-3.5.5/bin/../share/sdcc/lib/z80/z80.lib
                                          [ __sdcc_call_hl.rel ]
/home/albert/cpctelera/cpctelera/cpctelera.lib
                                          [ cpct_firmware2hw_colour_table.re ]
/home/albert/cpctelera/cpctelera/cpctelera.lib
                                          [ cpct_waitVSYNC.rel ]
/home/albert/cpctelera/cpctelera/cpctelera.lib
                                          [ cpct_setVideoMode_cbindings.rel ]
/home/albert/cpctelera/cpctelera/cpctelera.lib
                                          [ cpct_memcpy_cbindings.rel ]
/home/albert/cpctelera/cpctelera/cpctelera.lib
                                          [ cpct_memset_cbinding.rel ]
/home/albert/cpctelera/cpctelera/cpctelera.lib
                                          [ cpct_removeInterruptHandler.rel ]
/home/albert/cpctelera/cpctelera/cpctelera.lib
                                          [ cpct_drawSolidBox_cbindings.rel ]
/home/albert/cpctelera/cpctelera/cpctelera.lib
                                          [ cpc_mode_rom_status.rel ]
/home/albert/cpctelera/cpctelera/tools/sdcc-3.5.5/bin/../share/sdcc/lib/z80/z80.lib
                                          [ divsigned.rel ]
/home/albert/cpctelera/cpctelera/cpctelera.lib
                                          [ cpct_setInterruptHandler.rel ]
/home/albert/cpctelera/cpctelera/cpctelera.lib
                                          [ cpct_mxor32_seed.rel ]

ASxxxx Linker V03.00 + NoICE + sdld,  page 9.

User Base Address Definitions

_CODE = 0x0040
_DATA = 0x0000

