ASxxxx Linker V03.00 + NoICE + sdld,  page 1.
Hexadecimal  [32-Bits]

Area                                    Addr        Size        Decimal Bytes (Attributes)
--------------------------------        ----        ----        ------- ----- ------------
.  .ABS.                            00000000    00000000 =           0. bytes (ABS,CON)

      Value  Global                              Global Defined In Module
      -----  --------------------------------   ------------------------
     00000000  .__.ABS.                           cpct_firmware
     00000000  l__CABS                         
     00000000  l__DABS                         
     00000000  l__GSFINAL                      
     00000000  l__GSINIT                       
     00000000  l__HOME                         
     00000000  s__CABS                         
     00000000  s__DABS                         
     0000000A  l__INITIALIZED                  
     0000000A  l__INITIALIZER                  
     000000B4  l__DATA                         
     00004060  l__CODE                         
     00005000  s__CODE                         
     00009060  s__DATA                         
     00009114  s__INITIALIZED                  
     0000911E  s__GSFINAL                      
     0000911E  s__GSINIT                       
     0000911E  s__HOME                         
     0000911E  s__INITIALIZER                  

ASxxxx Linker V03.00 + NoICE + sdld,  page 2.
Hexadecimal  [32-Bits]

Area                                    Addr        Size        Decimal Bytes (Attributes)
--------------------------------        ----        ----        ------- ----- ------------
_CODE                               00005000    00004060 =       16480. bytes (REL,CON)

      Value  Global                              Global Defined In Module
      -----  --------------------------------   ------------------------
     00005000  _abs                               Enemy
     0000500A  _activeEnemies                     Enemy
     0000500B  _Enemy_spawn_new                   Enemy
     00005044  _Enemy_update_logic                Enemy
     00005045  _level_init_palettes               Level
     00005072  _level_palettes                    Level
     00005096  _setLevelPalette                   Level
     000050C9  _level_load_level                  Level
     00005114  _interrupt_handler                 main
     0000512F  _init                              main
     0000517A  _main                              main
     00005187  _init_generator                    Map
     00005191  _rand_seed                         Map
     00005192  _get_random_wall                   Map
     000051AF  _generate_map                      Map
     000056CA  _generate_exit_door                Map
     00005873  _generate_level                    Map
     0000587F  _PLAYER_position                   Player
     00005881  _PLAYER_direction                  Player
     00005883  _PLAYER_directionIndex             Player
     00005884  _PLAYER_directionArray             Player
     0000588C  _calculate_cells_in_view           Renderer
     00005A3B  _g_palette                         Renderer
     00005A4B  _g_colors                          Renderer
     00005A5B  _g_pixelMask                       Renderer
     00005A5D  _g_texturedWalls                   Renderer
     00005A5E  _cells_in_view_array               Renderer
     00005A60  _offsets_cells_in_view             Renderer
     00005A65  _draw_column_to_buffer_untexture   Renderer
     00005ADD  _draw_column_to_buffer_object      Renderer
     00005ADE  _draw_column_to_buffer_enemy       Renderer
     00005C1C  _draw_column_to_buffer             Renderer
     00005D54  _render_draw_to_buffer             Renderer
     000068AE  _draw_minimap_to_buffer            Renderer
     000069E4  _state_ingame_enter                State_InGame
     00006A13  _isInitialized                     State_InGame
     00006A14  _needRender                        State_InGame
     00006A15  _state_ingame_input                State_InGame
     00006B40  _state_ingame_update               State_InGame
     00006B51  _state_ingame_render               State_InGame
     00006B73  _state_ingame_exit                 State_InGame
     00006B79  _state_mainmenu_enter              State_MainMenu
     00006BA7  _state_mainmenu_input              State_MainMenu
     00006BBB  _state_mainmenu_update             State_MainMenu
     00006BBC  _state_mainmenu_render             State_MainMenu
     00006BBD  _state_mainmenu_exit               State_MainMenu
     00006BBE  _statemanager_change_state         StateManager
     00006BE9  _stateArray                        StateManager
     00006C07  _currentState                      StateManager
     00006C08  _changeToState                     StateManager
ASxxxx Linker V03.00 + NoICE + sdld,  page 3.
Hexadecimal  [32-Bits]

Area                                    Addr        Size        Decimal Bytes (Attributes)
--------------------------------        ----        ----        ------- ----- ------------
_CODE                               00005000    00004060 =       16480. bytes (REL,CON)

      Value  Global                              Global Defined In Module
      -----  --------------------------------   ------------------------
     00006C09  _inputReceived                     StateManager
     00006C0A  _statemanager_input_accepted       StateManager
     00006C10  _statemanager_set_state            StateManager
     00006C1B  _scan_input                        StateManager
     00006C6C  _statemanager_manage_input         StateManager
     00006C96  _statemanager_render_state         StateManager
     00006CB1  _statemanager_close_state          StateManager
     00006CD5  _statemanager_update_state         StateManager
     00006CF0  _statemanager_main_loop            StateManager
     00006CFE  _state_pausemenu_enter             State_PauseMenu
     00006D3E  _state_pausemenu_input             State_PauseMenu
     00006D6E  _state_pausemenu_update            State_PauseMenu
     00006D6F  _state_pausemenu_render            State_PauseMenu
     00006D70  _state_pausemenu_exit              State_PauseMenu
     00006D71  _uncompress_texture                Textures
     00006E1F  _theme_textures                    Textures
     00006E27  _enemy_textures                    Textures
     00006E2F  _uncompress_theme_textures         Textures
     00006ED9  _uncompress_enemy_textures         Textures
     00006F64  _uncompress_item_textures          Textures
     00006F65  _renderCompass                     UI_Compass
     00006F85  _typography0_tileset               4x6_monospaced
     00006FCD  _typography0_4x6_monospaced_00     4x6_monospaced
     00006FD9  _typography0_4x6_monospaced_01     4x6_monospaced
     00006FE5  _typography0_4x6_monospaced_02     4x6_monospaced
     00006FF1  _typography0_4x6_monospaced_03     4x6_monospaced
     00006FFD  _typography0_4x6_monospaced_04     4x6_monospaced
     00007009  _typography0_4x6_monospaced_05     4x6_monospaced
     00007015  _typography0_4x6_monospaced_06     4x6_monospaced
     00007021  _typography0_4x6_monospaced_07     4x6_monospaced
     0000702D  _typography0_4x6_monospaced_08     4x6_monospaced
     00007039  _typography0_4x6_monospaced_09     4x6_monospaced
     00007045  _typography0_4x6_monospaced_10     4x6_monospaced
     00007051  _typography0_4x6_monospaced_11     4x6_monospaced
     0000705D  _typography0_4x6_monospaced_12     4x6_monospaced
     00007069  _typography0_4x6_monospaced_13     4x6_monospaced
     00007075  _typography0_4x6_monospaced_14     4x6_monospaced
     00007081  _typography0_4x6_monospaced_15     4x6_monospaced
     0000708D  _typography0_4x6_monospaced_16     4x6_monospaced
     00007099  _typography0_4x6_monospaced_17     4x6_monospaced
     000070A5  _typography0_4x6_monospaced_18     4x6_monospaced
     000070B1  _typography0_4x6_monospaced_19     4x6_monospaced
     000070BD  _typography0_4x6_monospaced_20     4x6_monospaced
     000070C9  _typography0_4x6_monospaced_21     4x6_monospaced
     000070D5  _typography0_4x6_monospaced_22     4x6_monospaced
     000070E1  _typography0_4x6_monospaced_23     4x6_monospaced
     000070ED  _typography0_4x6_monospaced_24     4x6_monospaced
     000070F9  _typography0_4x6_monospaced_25     4x6_monospaced
     00007105  _typography0_4x6_monospaced_26     4x6_monospaced
     00007111  _typography0_4x6_monospaced_27     4x6_monospaced
     0000711D  _typography0_4x6_monospaced_28     4x6_monospaced
ASxxxx Linker V03.00 + NoICE + sdld,  page 4.
Hexadecimal  [32-Bits]

Area                                    Addr        Size        Decimal Bytes (Attributes)
--------------------------------        ----        ----        ------- ----- ------------
_CODE                               00005000    00004060 =       16480. bytes (REL,CON)

      Value  Global                              Global Defined In Module
      -----  --------------------------------   ------------------------
     00007129  _typography0_4x6_monospaced_29     4x6_monospaced
     00007135  _typography0_4x6_monospaced_30     4x6_monospaced
     00007141  _typography0_4x6_monospaced_31     4x6_monospaced
     0000714D  _typography0_4x6_monospaced_32     4x6_monospaced
     00007159  _typography0_4x6_monospaced_33     4x6_monospaced
     00007165  _typography0_4x6_monospaced_34     4x6_monospaced
     00007171  _typography0_4x6_monospaced_35     4x6_monospaced
     0000717D  _compass_tileset                   compass
     00007185  _compass_compass_0                 compass
     00007205  _compass_compass_1                 compass
     00007285  _compass_compass_2                 compass
     00007305  _compass_compass_3                 compass
     00007385  _level0_enemies_tileset            level0_enemies
     0000738D  _level0_enemies_level0_enemies_0   level0_enemies
     000074AD  _level0_enemies_level0_enemies_1   level0_enemies
     000075CD  _level0_enemies_level0_enemies_2   level0_enemies
     000076ED  _level0_enemies_level0_enemies_3   level0_enemies
     0000780D  _level0_walls_tileset              level0_walls
     00007817  _level0_walls_level0_walls_0       level0_walls
     00007A17  _level0_walls_level0_walls_1       level0_walls
     00007C17  _level0_walls_level0_walls_2       level0_walls
     00007E17  _level0_walls_level0_walls_3       level0_walls
     00008017  _level0_walls_level0_walls_4       level0_walls
     00008217  _level1_walls_tileset              level1_walls
     00008221  _level1_walls_level1_walls_0       level1_walls
     00008421  _level1_walls_level1_walls_1       level1_walls
     00008621  _level1_walls_level1_walls_2       level1_walls
     00008821  _level1_walls_level1_walls_3       level1_walls
     00008A21  _level1_walls_level1_walls_4       level1_walls
     00008C21  _cpct_isKeyPressed                 cpct_keyboard
     00008C21  cpct_isKeyPressed_asm              cpct_keyboard
     00008C2D  _cpct_scanKeyboard_f               cpct_keyboard
     00008C2D  cpct_scanKeyboard_f_asm            cpct_keyboard
     00008C97  _cpct_setPalette                   cpct_video
     00008CAE  _cpct_setPALColour                 cpct_video
     00008CBA  _cpct_drawStringM0                 cpct_strings
     00008CC2  cpct_drawStringM0_asm              cpct_strings
     00008CDE  _cpct_drawSprite                   cpct_sprites
     00008D83  __moduchar                         
     00008D8F  __moduint                          
     00008D9A  _cpct_drawCharM0                   cpct_strings
     00008DA7  cpct_drawCharM0_asm                cpct_strings
     00008E27  _cpct_setSeed_lcg_u8               cpct_random
     00008E27  cpct_setSeed_lcg_u8_asm            cpct_random
     00008E2C  _cpct_fw2hw                        cpct_video
     00008E3F  _cpct_keyboardStatusBuffer         cpct_keyboard
     00008E49  __mulint                           
     00008E51  __mul16                            
     00008E65  __divuint                          
     00008E6D  __divuchar                         
     00008E74  __divu8                            
ASxxxx Linker V03.00 + NoICE + sdld,  page 5.
Hexadecimal  [32-Bits]

Area                                    Addr        Size        Decimal Bytes (Attributes)
--------------------------------        ----        ----        ------- ----- ------------
_CODE                               00005000    00004060 =       16480. bytes (REL,CON)

      Value  Global                              Global Defined In Module
      -----  --------------------------------   ------------------------
     00008E77  __divu16                           
     00008EA6  ___sdcc_call_hl                    
     00008EA7  cpct_firmware2hw_colour            
     00008EC2  _cpct_getRandom_lcg_u8             cpct_random
     00008EC2  cpct_getRandom_lcg_u8_asm          cpct_random
     00008EC3  cpct_randlcgu8_seed                cpct_random
     00008ED3  _cpct_setVideoMode                 cpct_video
     00008EE1  dc_mode0_ct                        cpct_strings
     00008EF1  _cpct_memset                       cpct_memutils
     00008EFF  _cpct_memcpy                       cpct_memutils
     00008F07  _cpct_disableFirmware              cpct_firmware
     00008F07  _cpct_removeInterruptHandler       cpct_firmware
     00008F07  cpct_disableFirmware_asm           cpct_firmware
     00008F07  cpct_removeInterruptHandler_asm    cpct_firmware
     00008F17  _cpct_drawSolidBox                 cpct_sprites
     00008FCF  _cpct_mode_rom_status              cpct_firmware
     00008FD0  _cpct_getScreenPtr                 cpct_video
     00008FF0  __divsint                          
     00008FF9  __divschar                         
     00009000  __div8                             
     00009004  __div_signexte                     
     00009008  __div16                            
     0000902E  __get_remainder                    
     00009038  _cpct_setInterruptHandler          cpct_firmware
     00009038  cpct_setInterruptHandler_asm       cpct_firmware
     00009049  cpct_safeInterruptHandlerHook      cpct_firmware

ASxxxx Linker V03.00 + NoICE + sdld,  page 6.
Hexadecimal  [32-Bits]

Area                                    Addr        Size        Decimal Bytes (Attributes)
--------------------------------        ----        ----        ------- ----- ------------
_DATA                               00009060    000000B4 =         180. bytes (REL,CON)

      Value  Global                              Global Defined In Module
      -----  --------------------------------   ------------------------
     00009060  _enemyArray                        Enemy

ASxxxx Linker V03.00 + NoICE + sdld,  page 7.
Hexadecimal  [32-Bits]

Area                                    Addr        Size        Decimal Bytes (Attributes)
--------------------------------        ----        ----        ------- ----- ------------
_INITIALIZED                        00009114    0000000A =          10. bytes (REL,CON)

      Value  Global                              Global Defined In Module
      -----  --------------------------------   ------------------------
     00009114  _last_keyboardStatusBuffer         StateManager

ASxxxx Linker V03.00 + NoICE + sdld,  page 8.
Hexadecimal  [32-Bits]

Area                                    Addr        Size        Decimal Bytes (Attributes)
--------------------------------        ----        ----        ------- ----- ------------
_INITIALIZER                        0000911E    0000000A =          10. bytes (REL,CON)

      Value  Global                              Global Defined In Module
      -----  --------------------------------   ------------------------
ASxxxx Linker V03.00 + NoICE + sdld,  page 9.

Files Linked                              [ module(s) ]

obj/Enemy.rel                             [ Enemy ]
obj/Item.rel                              [ Item ]
obj/Level.rel                             [ Level ]
obj/main.rel                              [ main ]
obj/Map.rel                               [ Map ]
obj/Player.rel                            [ Player ]
obj/Renderer.rel                          [ Renderer ]
obj/State_InGame.rel                      [ State_InGame ]
obj/State_MainMenu.rel                    [ State_MainMenu ]
obj/StateManager.rel                      [ StateManager ]
obj/State_PauseMenu.rel                   [ State_PauseMenu ]
obj/StringUtils.rel                       [ StringUtils ]
obj/Textures.rel                          [ Textures ]
obj/UI_Compass.rel                        [ UI_Compass ]
obj/UI_EnemyStats.rel                     [ UI_EnemyStats ]
obj/UI_GameMenu.rel                       [ UI_GameMenu ]
obj/UI_MainMenu.rel                       [ UI_MainMenu ]
obj/UI_PauseMenu.rel                      [ UI_PauseMenu ]
obj/UI_PlayerStats.rel                    [ UI_PlayerStats ]
obj/textures/4x6_monospaced.rel           [ 4x6_monospaced ]
obj/textures/compass.rel                  [ compass ]
obj/textures/enemies/level0_enemies.rel   [ level0_enemies ]
obj/textures/walls/level0_walls.rel       [ level0_walls ]
obj/textures/walls/level1_walls.rel       [ level1_walls ]


Libraries Linked                          [ object file ]

/home/albert/cpctelera/cpctelera/cpctelera.lib
                                          [ cpct_isKeyPressed.rel ]
/home/albert/cpctelera/cpctelera/cpctelera.lib
                                          [ cpct_scanKeyboard_f.rel ]
/home/albert/cpctelera/cpctelera/cpctelera.lib
                                          [ cpct_setPalette_cbindings.rel ]
/home/albert/cpctelera/cpctelera/cpctelera.lib
                                          [ cpct_setPALColour_cbindings.rel ]
/home/albert/cpctelera/cpctelera/cpctelera.lib
                                          [ cpct_drawStringM0.rel ]
/home/albert/cpctelera/cpctelera/cpctelera.lib
                                          [ cpct_drawSprite_cbindings.rel ]
/home/albert/cpctelera/cpctelera/tools/sdcc-3.5.5/bin/../share/sdcc/lib/z80/z80.lib
                                          [ modunsigned.rel ]
/home/albert/cpctelera/cpctelera/cpctelera.lib
                                          [ cpct_drawCharM0.rel ]
/home/albert/cpctelera/cpctelera/cpctelera.lib
                                          [ cpct_setSeed_lcg_u8.rel ]
/home/albert/cpctelera/cpctelera/cpctelera.lib
                                          [ cpct_fw2hw_cbindings.rel ]
/home/albert/cpctelera/cpctelera/cpctelera.lib
                                          [ keyboard.rel ]
/home/albert/cpctelera/cpctelera/tools/sdcc-3.5.5/bin/../share/sdcc/lib/z80/z80.lib
                                          [ mul.rel ]
/home/albert/cpctelera/cpctelera/tools/sdcc-3.5.5/bin/../share/sdcc/lib/z80/z80.lib
                                          [ divunsigned.rel ]
/home/albert/cpctelera/cpctelera/tools/sdcc-3.5.5/bin/../share/sdcc/lib/z80/z80.lib
                                          [ __sdcc_call_hl.rel ]
/home/albert/cpctelera/cpctelera/cpctelera.lib
                                          [ cpct_firmware2hw_colour_table.re ]
/home/albert/cpctelera/cpctelera/cpctelera.lib
                                          [ cpct_getRandom_lcg_u8.rel ]
/home/albert/cpctelera/cpctelera/cpctelera.lib
                                          [ cpct_setVideoMode_cbindings.rel ]
/home/albert/cpctelera/cpctelera/cpctelera.lib
                                          [ cpct_dc_mode0_ct.rel ]
/home/albert/cpctelera/cpctelera/cpctelera.lib
                                          [ cpct_memset_cbinding.rel ]
/home/albert/cpctelera/cpctelera/cpctelera.lib
                                          [ cpct_memcpy_cbindings.rel ]
/home/albert/cpctelera/cpctelera/cpctelera.lib
                                          [ cpct_removeInterruptHandler.rel ]
/home/albert/cpctelera/cpctelera/cpctelera.lib
                                          [ cpct_drawSolidBox_cbindings.rel ]
/home/albert/cpctelera/cpctelera/cpctelera.lib
                                          [ cpc_mode_rom_status.rel ]
/home/albert/cpctelera/cpctelera/cpctelera.lib
                                          [ cpct_getScreenPtr_cbindings.rel ]
/home/albert/cpctelera/cpctelera/tools/sdcc-3.5.5/bin/../share/sdcc/lib/z80/z80.lib
                                          [ divsigned.rel ]
/home/albert/cpctelera/cpctelera/cpctelera.lib
                                          [ cpct_setInterruptHandler.rel ]

ASxxxx Linker V03.00 + NoICE + sdld,  page 10.

User Base Address Definitions

_CODE = 0x5000
_DATA = 0x0000

