ASxxxx Linker V03.00 + NoICE + sdld,  page 1.
Hexadecimal  [32-Bits]

Area                                    Addr        Size        Decimal Bytes (Attributes)
--------------------------------        ----        ----        ------- ----- ------------
.  .ABS.                            00000000    00000000 =           0. bytes (ABS,CON)

      Value  Global                              Global Defined In Module
      -----  --------------------------------   ------------------------
     00000000  .__.ABS.                           cpct_firmware
     00000000  l__CABS                         
     00000000  l__DABS                         
     00000000  l__GSFINAL                      
     00000000  l__GSINIT                       
     00000000  l__HOME                         
     00000000  s__CABS                         
     00000000  s__DABS                         
     00000009  l__INITIALIZED                  
     00000009  l__INITIALIZER                  
     00000040  s__CODE                         
     000000B5  l__DATA                         
     00004820  l__CODE                         
     00004860  s__DATA                         
     00004915  s__INITIALIZED                  
     0000491E  s__GSFINAL                      
     0000491E  s__GSINIT                       
     0000491E  s__HOME                         
     0000491E  s__INITIALIZER                  

ASxxxx Linker V03.00 + NoICE + sdld,  page 2.
Hexadecimal  [32-Bits]

Area                                    Addr        Size        Decimal Bytes (Attributes)
--------------------------------        ----        ----        ------- ----- ------------
_CODE                               00000040    00004820 =       18464. bytes (REL,CON)

      Value  Global                              Global Defined In Module
      -----  --------------------------------   ------------------------
     00000040  _abs                               Enemy
     0000004A  _activeEnemies                     Enemy
     0000004B  _Enemy_spawn_new                   Enemy
     00000084  _Enemy_update_logic                Enemy
     00000085  _game_interrupt_handler            GameFunctions
     0000008A  _game_init                         GameFunctions
     000000C4  _level_get_level                   Level
     000000CC  _level_palettes                    Level
     000000F4  _level_set_level                   Level
     000000FD  _level_init_palettes               Level
     0000012A  _setLevelPalette                   Level
     0000015D  _level_load_level                  Level
     000001A0  _main                              main
     000001AD  _map_get_seed                      Map
     000001B5  _get_random_wall                   Map
     000001D2  _generate_map                      Map
     00000687  _generate_exit_door                Map
     0000083B  _generate_level                    Map
     00000845  _generate_level_with_seed          Map
     0000086A  _player_turn_left                  Player
     00000898  _player_position                   Player
     0000089A  _player_direction                  Player
     0000089C  _player_directionIndex             Player
     0000089D  _player_directionArray             Player
     000008A5  _player_turn_right                 Player
     000008D3  _player_move_forward               Player
     000008EE  _player_get_direction_index        Player
     000008F6  _calculate_cells_in_view           Renderer
     00000AA2  _g_palette                         Renderer
     00000AB2  _g_colors                          Renderer
     00000AC2  _g_pixelMask                       Renderer
     00000AC4  _g_texturedWalls                   Renderer
     00000AC5  _cells_in_view_array               Renderer
     00000AC7  _offsets_cells_in_view             Renderer
     00000ACC  _draw_column_to_buffer_untexture   Renderer
     00000B42  _draw_column_to_buffer_object      Renderer
     00000B43  _draw_column_to_buffer_enemy       Renderer
     00000C80  _draw_column_to_buffer             Renderer
     00000DB8  _render_draw_to_buffer             Renderer
     00001912  _draw_minimap_to_buffer            Renderer
     00001A48  _state_ingame_enter                State_InGame
     00001A62  _updateRenderBuffer                State_InGame
     00001A63  _state_ingame_input                State_InGame
     00001ADB  _state_ingame_update               State_InGame
     00001B3C  _state_ingame_render               State_InGame
     00001B64  _state_ingame_exit                 State_InGame
     00001B65  _state_loadlevel_enter             State_LoadLevel
     00001B9C  _state_loadlevel_input             State_LoadLevel
     00001B9F  _state_loadlevel_update            State_LoadLevel
     00001BAB  _state_loadlevel_render            State_LoadLevel
ASxxxx Linker V03.00 + NoICE + sdld,  page 3.
Hexadecimal  [32-Bits]

Area                                    Addr        Size        Decimal Bytes (Attributes)
--------------------------------        ----        ----        ------- ----- ------------
_CODE                               00000040    00004820 =       18464. bytes (REL,CON)

      Value  Global                              Global Defined In Module
      -----  --------------------------------   ------------------------
     00001BAC  _state_loadlevel_exit              State_LoadLevel
     00001BAD  _state_mainmenu_enter              State_MainMenu
     00001BE3  _state_mainmenu_input              State_MainMenu
     00001C12  _state_mainmenu_update             State_MainMenu
     00001C58  _state_mainmenu_render             State_MainMenu
     00001C5B  _state_mainmenu_exit               State_MainMenu
     00001C5C  _statemanager_drop_state           StateManager
     00001C97  _stateArray                        StateManager
     00001CC7  _closeState                        StateManager
     00001CC8  _currentState                      StateManager
     00001CC9  _changeToState                     StateManager
     00001CCA  _inputReceived                     StateManager
     00001CCB  _gameRunning                       StateManager
     00001CCC  _last_keyboardStatusBuffer         StateManager
     00001CD6  _statemanager_change_state         StateManager
     00001D1D  _statemanager_input_accepted       StateManager
     00001D23  _statemanager_set_state            StateManager
     00001D2E  _scan_input                        StateManager
     00001D7F  _statemanager_manage_input         StateManager
     00001DAB  _statemanager_render_state         StateManager
     00001DC9  _statemanager_close_state          StateManager
     00001DCF  _statemanager_update_state         StateManager
     00001DEA  _statemanager_exit_game            StateManager
     00001DF0  _statemanager_main_loop            StateManager
     00001E06  _state_pausemenu_enter             State_PauseMenu
     00001E23  _state_pausemenu_input             State_PauseMenu
     00001E4C  _state_pausemenu_update            State_PauseMenu
     00001E4D  _state_pausemenu_render            State_PauseMenu
     00001E4E  _state_pausemenu_exit              State_PauseMenu
     00001E6D  _integer_to_string                 StringUtils
     00001F4B  _charArray                         StringUtils
     00001FCB  _i_to_s_buffer                     StringUtils
     00001FD4  _print_text                        StringUtils
     000021AB  _print_transparent_text            StringUtils
     00002302  _uncompress_texture                Textures
     000023B0  _theme_textures                    Textures
     000023B8  _enemy_textures                    Textures
     000023C0  _uncompress_theme_textures         Textures
     0000246B  _uncompress_enemy_textures         Textures
     000024F6  _uncompress_item_textures          Textures
     000024F7  _renderCompass                     UI_Compass
     00002513  _ui_gamemenu_init                  UI_GameMenu
     00002523  _ui_gamemenu_entriesPosition       UI_GameMenu
     0000252F  _ui_gamemenu_action_buttonText     UI_GameMenu
     00002535  _ui_gamemenu_buttonText            UI_GameMenu
     00002541  _ui_gamemenu_buttonWidths          UI_GameMenu
     00002575  _ui_gamemenu_next_entry            UI_GameMenu
     00002583  _ui_gamemenu_previous_entry        UI_GameMenu
     00002593  _ui_gamemenu_unselect_entry        UI_GameMenu
     00002599  _ui_gamemenu_select_entry          UI_GameMenu
     0000259F  _ui_gamemenu_render_refresh        UI_GameMenu
ASxxxx Linker V03.00 + NoICE + sdld,  page 4.
Hexadecimal  [32-Bits]

Area                                    Addr        Size        Decimal Bytes (Attributes)
--------------------------------        ----        ----        ------- ----- ------------
_CODE                               00000040    00004820 =       18464. bytes (REL,CON)

      Value  Global                              Global Defined In Module
      -----  --------------------------------   ------------------------
     00002665  _ui_gamemenu_render_all            UI_GameMenu
     000026FB  _ui_gamemenu_get_entry             UI_GameMenu
     00002703  _ui_gamemenu_is_selected           UI_GameMenu
     0000270B  _ui_mainmenu_init                  UI_MainMenu
     0000271B  _ui_mainmenu_entriesPosition       UI_MainMenu
     00002725  _ui_mainmenu_buttonText            UI_MainMenu
     0000272F  _ui_mainmenu_buttonWidths          UI_MainMenu
     00002758  _ui_mainmenu_next_entry            UI_MainMenu
     00002766  _ui_mainmenu_previous_entry        UI_MainMenu
     00002776  _ui_mainmenu_unselect_entry        UI_MainMenu
     0000277C  _ui_mainmenu_select_entry          UI_MainMenu
     00002782  _ui_mainmenu_render_refresh        UI_MainMenu
     00002835  _ui_mainmenu_render_all            UI_MainMenu
     000028C2  _ui_mainmenu_get_entry             UI_MainMenu
     000028CA  _ui_mainmenu_is_selected           UI_MainMenu
     000028D2  _ui_playerstats_render             UI_PlayerStats
     0000296A  _strings                           UI_PlayerStats
     000029A0  _compass_tileset                   compass
     000029A8  _compass_compass_0                 compass
     00002A28  _compass_compass_1                 compass
     00002AA8  _compass_compass_2                 compass
     00002B28  _compass_compass_3                 compass
     00002BA8  _level0_enemies_tileset            level0_enemies
     00002BB0  _level0_enemies_level0_enemies_0   level0_enemies
     00002CD0  _level0_enemies_level0_enemies_1   level0_enemies
     00002DF0  _level0_enemies_level0_enemies_2   level0_enemies
     00002F10  _level0_enemies_level0_enemies_3   level0_enemies
     00003030  _typography_4x6_monospaced         typography_4x6_monospaced
     000030C6  _level0_walls_tileset              level0_walls
     000030D0  _level0_walls_level0_walls_0       level0_walls
     000032D0  _level0_walls_level0_walls_1       level0_walls
     000034D0  _level0_walls_level0_walls_2       level0_walls
     000036D0  _level0_walls_level0_walls_3       level0_walls
     000038D0  _level0_walls_level0_walls_4       level0_walls
     00003AD0  _level1_walls_tileset              level1_walls
     00003ADA  _level1_walls_level1_walls_0       level1_walls
     00003CDA  _level1_walls_level1_walls_1       level1_walls
     00003EDA  _level1_walls_level1_walls_2       level1_walls
     000040DA  _level1_walls_level1_walls_3       level1_walls
     000042DA  _level1_walls_level1_walls_4       level1_walls
     000044DA  _cpct_scanKeyboard_f               cpct_keyboard
     000044DA  cpct_scanKeyboard_f_asm            cpct_keyboard
     00004544  _cpct_isKeyPressed                 cpct_keyboard
     00004544  cpct_isKeyPressed_asm              cpct_keyboard
     00004550  _cpct_setPalette                   cpct_video
     00004567  _cpct_setPALColour                 cpct_video
     00004573  _cpct_drawSprite                   cpct_sprites
     00004618  __moduchar                         
     00004624  __moduint                          
     0000462F  __divuint                          
     00004637  __divuchar                         
ASxxxx Linker V03.00 + NoICE + sdld,  page 5.
Hexadecimal  [32-Bits]

Area                                    Addr        Size        Decimal Bytes (Attributes)
--------------------------------        ----        ----        ------- ----- ------------
_CODE                               00000040    00004820 =       18464. bytes (REL,CON)

      Value  Global                              Global Defined In Module
      -----  --------------------------------   ------------------------
     0000463E  __divu8                            
     00004641  __divu16                           
     00004670  _cpct_setSeed_lcg_u8               cpct_random
     00004670  cpct_setSeed_lcg_u8_asm            cpct_random
     00004675  _cpct_fw2hw                        cpct_video
     00004688  _cpct_keyboardStatusBuffer         cpct_keyboard
     00004692  __mulint                           
     0000469A  __mul16                            
     000046AE  ___sdcc_call_hl                    
     000046AF  cpct_firmware2hw_colour            
     000046CA  _cpct_getRandom_lcg_u8             cpct_random
     000046CA  cpct_getRandom_lcg_u8_asm          cpct_random
     000046CB  cpct_randlcgu8_seed                cpct_random
     000046DB  _cpct_waitVSYNC                    cpct_video
     000046DB  cpct_waitVSYNC_asm                 cpct_video
     000046E3  _cpct_setVideoMode                 cpct_video
     000046F1  _cpct_memset                       cpct_memutils
     000046FF  _cpct_memcpy                       cpct_memutils
     00004707  _cpct_disableFirmware              cpct_firmware
     00004707  _cpct_removeInterruptHandler       cpct_firmware
     00004707  cpct_disableFirmware_asm           cpct_firmware
     00004707  cpct_removeInterruptHandler_asm    cpct_firmware
     00004717  _cpct_drawSolidBox                 cpct_sprites
     000047CF  _cpct_mode_rom_status              cpct_firmware
     000047D0  _cpct_getScreenPtr                 cpct_video
     000047F0  __divsint                          
     000047F9  __divschar                         
     00004800  __div8                             
     00004804  __div_signexte                     
     00004808  __div16                            
     0000482E  __get_remainder                    
     00004838  _cpct_setInterruptHandler          cpct_firmware
     00004838  cpct_setInterruptHandler_asm       cpct_firmware
     00004849  cpct_safeInterruptHandlerHook      cpct_firmware
ASxxxx Linker V03.00 + NoICE + sdld,  page 6.
Hexadecimal  [32-Bits]

Area                                    Addr        Size        Decimal Bytes (Attributes)
--------------------------------        ----        ----        ------- ----- ------------
_DATA                               00004860    000000B5 =         181. bytes (REL,CON)

      Value  Global                              Global Defined In Module
      -----  --------------------------------   ------------------------
     00004860  _enemyArray                        Enemy
     00004914  _current_level                     Level

ASxxxx Linker V03.00 + NoICE + sdld,  page 7.
Hexadecimal  [32-Bits]

Area                                    Addr        Size        Decimal Bytes (Attributes)
--------------------------------        ----        ----        ------- ----- ------------
_INITIALIZED                        00004915    00000009 =           9. bytes (REL,CON)

      Value  Global                              Global Defined In Module
      -----  --------------------------------   ------------------------
     00004915  _r_counter                         GameFunctions
     00004916  _rand_seed                         Map
     00004917  _ui_gamemenu_lastEntry             UI_GameMenu
     00004918  _ui_gamemenu_entryIndex            UI_GameMenu
     00004919  _ui_gamemenu_entrySelected         UI_GameMenu
     0000491A  _ui_gamemenu_action                UI_GameMenu
     0000491B  _ui_mainmenu_lastEntry             UI_MainMenu
     0000491C  _ui_mainmenu_entryIndex            UI_MainMenu
     0000491D  _ui_mainmenu_entrySelected         UI_MainMenu
ASxxxx Linker V03.00 + NoICE + sdld,  page 8.
Hexadecimal  [32-Bits]

Area                                    Addr        Size        Decimal Bytes (Attributes)
--------------------------------        ----        ----        ------- ----- ------------
_INITIALIZER                        0000491E    00000009 =           9. bytes (REL,CON)

      Value  Global                              Global Defined In Module
      -----  --------------------------------   ------------------------
ASxxxx Linker V03.00 + NoICE + sdld,  page 9.

Files Linked                              [ module(s) ]

obj/Enemy.rel                             [ Enemy ]
obj/GameFunctions.rel                     [ GameFunctions ]
obj/Item.rel                              [ Item ]
obj/Level.rel                             [ Level ]
obj/main.rel                              [ main ]
obj/Map.rel                               [ Map ]
obj/Player.rel                            [ Player ]
obj/Renderer.rel                          [ Renderer ]
obj/State_Credits.rel                     [ State_Credits ]
obj/State_InGame.rel                      [ State_InGame ]
obj/State_Intro.rel                       [ State_Intro ]
obj/State_LoadLevel.rel                   [ State_LoadLevel ]
obj/State_MainMenu.rel                    [ State_MainMenu ]
obj/StateManager.rel                      [ StateManager ]
obj/State_PauseMenu.rel                   [ State_PauseMenu ]
obj/StringUtils.rel                       [ StringUtils ]
obj/Textures.rel                          [ Textures ]
obj/UI_Compass.rel                        [ UI_Compass ]
obj/UI_EnemyStats.rel                     [ UI_EnemyStats ]
obj/UI_GameMenu.rel                       [ UI_GameMenu ]
obj/UI_MainMenu.rel                       [ UI_MainMenu ]
obj/UI_PauseMenu.rel                      [ UI_PauseMenu ]
obj/UI_PlayerStats.rel                    [ UI_PlayerStats ]
obj/textures/compass.rel                  [ compass ]
obj/textures/enemies/level0_enemies.rel   [ level0_enemies ]
obj/textures/typography/typography_4x6_monospaced.rel
                                          [ typography_4x6_monospaced ]
obj/textures/walls/level0_walls.rel       [ level0_walls ]
obj/textures/walls/level1_walls.rel       [ level1_walls ]


Libraries Linked                          [ object file ]

/home/albert/cpctelera/cpctelera/cpctelera.lib
                                          [ cpct_scanKeyboard_f.rel ]
/home/albert/cpctelera/cpctelera/cpctelera.lib
                                          [ cpct_isKeyPressed.rel ]
/home/albert/cpctelera/cpctelera/cpctelera.lib
                                          [ cpct_setPalette_cbindings.rel ]
/home/albert/cpctelera/cpctelera/cpctelera.lib
                                          [ cpct_setPALColour_cbindings.rel ]
/home/albert/cpctelera/cpctelera/cpctelera.lib
                                          [ cpct_drawSprite_cbindings.rel ]
/home/albert/cpctelera/cpctelera/tools/sdcc-3.5.5/bin/../share/sdcc/lib/z80/z80.lib
                                          [ modunsigned.rel ]
/home/albert/cpctelera/cpctelera/tools/sdcc-3.5.5/bin/../share/sdcc/lib/z80/z80.lib
                                          [ divunsigned.rel ]
/home/albert/cpctelera/cpctelera/cpctelera.lib
                                          [ cpct_setSeed_lcg_u8.rel ]
/home/albert/cpctelera/cpctelera/cpctelera.lib
                                          [ cpct_fw2hw_cbindings.rel ]
/home/albert/cpctelera/cpctelera/cpctelera.lib
                                          [ keyboard.rel ]
/home/albert/cpctelera/cpctelera/tools/sdcc-3.5.5/bin/../share/sdcc/lib/z80/z80.lib
                                          [ mul.rel ]
/home/albert/cpctelera/cpctelera/tools/sdcc-3.5.5/bin/../share/sdcc/lib/z80/z80.lib
                                          [ __sdcc_call_hl.rel ]
/home/albert/cpctelera/cpctelera/cpctelera.lib
                                          [ cpct_firmware2hw_colour_table.re ]
/home/albert/cpctelera/cpctelera/cpctelera.lib
                                          [ cpct_getRandom_lcg_u8.rel ]
/home/albert/cpctelera/cpctelera/cpctelera.lib
                                          [ cpct_waitVSYNC.rel ]
/home/albert/cpctelera/cpctelera/cpctelera.lib
                                          [ cpct_setVideoMode_cbindings.rel ]
/home/albert/cpctelera/cpctelera/cpctelera.lib
                                          [ cpct_memset_cbinding.rel ]
/home/albert/cpctelera/cpctelera/cpctelera.lib
                                          [ cpct_memcpy_cbindings.rel ]
/home/albert/cpctelera/cpctelera/cpctelera.lib
                                          [ cpct_removeInterruptHandler.rel ]
/home/albert/cpctelera/cpctelera/cpctelera.lib
                                          [ cpct_drawSolidBox_cbindings.rel ]
/home/albert/cpctelera/cpctelera/cpctelera.lib
                                          [ cpc_mode_rom_status.rel ]
/home/albert/cpctelera/cpctelera/cpctelera.lib
                                          [ cpct_getScreenPtr_cbindings.rel ]
/home/albert/cpctelera/cpctelera/tools/sdcc-3.5.5/bin/../share/sdcc/lib/z80/z80.lib
                                          [ divsigned.rel ]
/home/albert/cpctelera/cpctelera/cpctelera.lib
                                          [ cpct_setInterruptHandler.rel ]

ASxxxx Linker V03.00 + NoICE + sdld,  page 10.

User Base Address Definitions

_CODE = 0x0040
_DATA = 0x0000

