                              1 ;--------------------------------------------------------
                              2 ; File Created by SDCC : free open source ANSI-C Compiler
                              3 ; Version 3.5.5 #9498 (Linux)
                              4 ;--------------------------------------------------------
                              5 	.module State_Credits
                              6 	.optsdcc -mz80
                              7 	
                              8 ;--------------------------------------------------------
                              9 ; Public variables in this module
                             10 ;--------------------------------------------------------
                             11 	.globl _statemanager_input_accepted
                             12 	.globl _statemanager_close_state
                             13 	.globl _print_transparent_text
                             14 	.globl _cpct_drawSolidBox
                             15 	.globl _cpct_isAnyKeyPressed_f
                             16 	.globl _state_credits_enter
                             17 	.globl _state_credits_return
                             18 	.globl _state_credits_input
                             19 	.globl _state_credits_update
                             20 	.globl _state_credits_render
                             21 	.globl _state_credits_exit
                             22 ;--------------------------------------------------------
                             23 ; special function registers
                             24 ;--------------------------------------------------------
                             25 ;--------------------------------------------------------
                             26 ; ram data
                             27 ;--------------------------------------------------------
                             28 	.area _DATA
                             29 ;--------------------------------------------------------
                             30 ; ram data
                             31 ;--------------------------------------------------------
                             32 	.area _INITIALIZED
                             33 ;--------------------------------------------------------
                             34 ; absolute external ram data
                             35 ;--------------------------------------------------------
                             36 	.area _DABS (ABS)
                             37 ;--------------------------------------------------------
                             38 ; global & static initialisations
                             39 ;--------------------------------------------------------
                             40 	.area _HOME
                             41 	.area _GSINIT
                             42 	.area _GSFINAL
                             43 	.area _GSINIT
                             44 ;--------------------------------------------------------
                             45 ; Home
                             46 ;--------------------------------------------------------
                             47 	.area _HOME
                             48 	.area _HOME
                             49 ;--------------------------------------------------------
                             50 ; code
                             51 ;--------------------------------------------------------
                             52 	.area _CODE
                             53 ;src/State_Credits.c:16: void state_credits_enter(){
                             54 ;	---------------------------------
                             55 ; Function state_credits_enter
                             56 ; ---------------------------------
   0000                      57 _state_credits_enter::
                             58 ;src/State_Credits.c:18: cpct_drawSolidBox(cpctm_screenPtr((u16)CPCT_VMEM_START,14,46),g_colors[4],52,92);
   0000 21r04r00      [10]   59 	ld	hl, #_g_colors + 4
   0003 46            [ 7]   60 	ld	b,(hl)
   0004 21 34 5C      [10]   61 	ld	hl,#0x5C34
   0007 E5            [11]   62 	push	hl
   0008 C5            [11]   63 	push	bc
   0009 33            [ 6]   64 	inc	sp
   000A 21 9E F1      [10]   65 	ld	hl,#0xF19E
   000D E5            [11]   66 	push	hl
   000E CDr00r00      [17]   67 	call	_cpct_drawSolidBox
   0011 F1            [10]   68 	pop	af
   0012 F1            [10]   69 	pop	af
   0013 33            [ 6]   70 	inc	sp
                             71 ;src/State_Credits.c:19: cpct_drawSolidBox(cpctm_screenPtr((u16)CPCT_VMEM_START,15,50),g_colors[1],50,84);
   0014 21r01r00      [10]   72 	ld	hl, #_g_colors + 1
   0017 46            [ 7]   73 	ld	b,(hl)
   0018 21 32 54      [10]   74 	ld	hl,#0x5432
   001B E5            [11]   75 	push	hl
   001C C5            [11]   76 	push	bc
   001D 33            [ 6]   77 	inc	sp
   001E 21 EF D1      [10]   78 	ld	hl,#0xD1EF
   0021 E5            [11]   79 	push	hl
   0022 CDr00r00      [17]   80 	call	_cpct_drawSolidBox
   0025 F1            [10]   81 	pop	af
   0026 F1            [10]   82 	pop	af
   0027 33            [ 6]   83 	inc	sp
                             84 ;src/State_Credits.c:21: print_transparent_text("CODING:", cpctm_screenPtr((u16)CPCT_VMEM_START,16,54),3);
   0028 3E 03         [ 7]   85 	ld	a,#0x03
   002A F5            [11]   86 	push	af
   002B 33            [ 6]   87 	inc	sp
   002C 21 F0 F1      [10]   88 	ld	hl,#0xF1F0
   002F E5            [11]   89 	push	hl
   0030 21r95r00      [10]   90 	ld	hl,#___str_0
   0033 E5            [11]   91 	push	hl
   0034 CDr00r00      [17]   92 	call	_print_transparent_text
   0037 F1            [10]   93 	pop	af
   0038 F1            [10]   94 	pop	af
   0039 33            [ 6]   95 	inc	sp
                             96 ;src/State_Credits.c:22: print_transparent_text("Albert Sirvent @piterayo",cpctm_screenPtr((u16)CPCT_VMEM_START,16,62),3);
   003A 3E 03         [ 7]   97 	ld	a,#0x03
   003C F5            [11]   98 	push	af
   003D 33            [ 6]   99 	inc	sp
   003E 21 40 F2      [10]  100 	ld	hl,#0xF240
   0041 E5            [11]  101 	push	hl
   0042 21r9Dr00      [10]  102 	ld	hl,#___str_1
   0045 E5            [11]  103 	push	hl
   0046 CDr00r00      [17]  104 	call	_print_transparent_text
   0049 F1            [10]  105 	pop	af
   004A F1            [10]  106 	pop	af
   004B 33            [ 6]  107 	inc	sp
                            108 ;src/State_Credits.c:24: print_transparent_text("ART:",cpctm_screenPtr((u16)CPCT_VMEM_START,16,78),3);
   004C 3E 03         [ 7]  109 	ld	a,#0x03
   004E F5            [11]  110 	push	af
   004F 33            [ 6]  111 	inc	sp
   0050 21 E0 F2      [10]  112 	ld	hl,#0xF2E0
   0053 E5            [11]  113 	push	hl
   0054 21rB6r00      [10]  114 	ld	hl,#___str_2
   0057 E5            [11]  115 	push	hl
   0058 CDr00r00      [17]  116 	call	_print_transparent_text
   005B F1            [10]  117 	pop	af
   005C F1            [10]  118 	pop	af
   005D 33            [ 6]  119 	inc	sp
                            120 ;src/State_Credits.c:25: print_transparent_text("Alejandro Padilla",cpctm_screenPtr((u16)CPCT_VMEM_START,16,86),3);
   005E 3E 03         [ 7]  121 	ld	a,#0x03
   0060 F5            [11]  122 	push	af
   0061 33            [ 6]  123 	inc	sp
   0062 21 30 F3      [10]  124 	ld	hl,#0xF330
   0065 E5            [11]  125 	push	hl
   0066 21rBBr00      [10]  126 	ld	hl,#___str_3
   0069 E5            [11]  127 	push	hl
   006A CDr00r00      [17]  128 	call	_print_transparent_text
   006D F1            [10]  129 	pop	af
   006E F1            [10]  130 	pop	af
   006F 33            [ 6]  131 	inc	sp
                            132 ;src/State_Credits.c:27: print_transparent_text("MUSIC:",cpctm_screenPtr((u16)CPCT_VMEM_START,16,102),3);
   0070 3E 03         [ 7]  133 	ld	a,#0x03
   0072 F5            [11]  134 	push	af
   0073 33            [ 6]  135 	inc	sp
   0074 21 D0 F3      [10]  136 	ld	hl,#0xF3D0
   0077 E5            [11]  137 	push	hl
   0078 21rCDr00      [10]  138 	ld	hl,#___str_4
   007B E5            [11]  139 	push	hl
   007C CDr00r00      [17]  140 	call	_print_transparent_text
   007F F1            [10]  141 	pop	af
   0080 F1            [10]  142 	pop	af
   0081 33            [ 6]  143 	inc	sp
                            144 ;src/State_Credits.c:28: print_transparent_text("Carlos Blaya",cpctm_screenPtr((u16)CPCT_VMEM_START,16,110),3);
   0082 3E 03         [ 7]  145 	ld	a,#0x03
   0084 F5            [11]  146 	push	af
   0085 33            [ 6]  147 	inc	sp
   0086 21 20 F4      [10]  148 	ld	hl,#0xF420
   0089 E5            [11]  149 	push	hl
   008A 21rD4r00      [10]  150 	ld	hl,#___str_5
   008D E5            [11]  151 	push	hl
   008E CDr00r00      [17]  152 	call	_print_transparent_text
   0091 F1            [10]  153 	pop	af
   0092 F1            [10]  154 	pop	af
   0093 33            [ 6]  155 	inc	sp
   0094 C9            [10]  156 	ret
   0095                     157 ___str_0:
   0095 43 4F 44 49 4E 47   158 	.ascii "CODING:"
        3A
   009C 00                  159 	.db 0x00
   009D                     160 ___str_1:
   009D 41 6C 62 65 72 74   161 	.ascii "Albert Sirvent @piterayo"
        20 53 69 72 76 65
        6E 74 20 40 70 69
        74 65 72 61 79 6F
   00B5 00                  162 	.db 0x00
   00B6                     163 ___str_2:
   00B6 41 52 54 3A         164 	.ascii "ART:"
   00BA 00                  165 	.db 0x00
   00BB                     166 ___str_3:
   00BB 41 6C 65 6A 61 6E   167 	.ascii "Alejandro Padilla"
        64 72 6F 20 50 61
        64 69 6C 6C 61
   00CC 00                  168 	.db 0x00
   00CD                     169 ___str_4:
   00CD 4D 55 53 49 43 3A   170 	.ascii "MUSIC:"
   00D3 00                  171 	.db 0x00
   00D4                     172 ___str_5:
   00D4 43 61 72 6C 6F 73   173 	.ascii "Carlos Blaya"
        20 42 6C 61 79 61
   00E0 00                  174 	.db 0x00
                            175 ;src/State_Credits.c:32: void state_credits_return(){
                            176 ;	---------------------------------
                            177 ; Function state_credits_return
                            178 ; ---------------------------------
   00E1                     179 _state_credits_return::
                            180 ;src/State_Credits.c:34: }
   00E1 C9            [10]  181 	ret
                            182 ;src/State_Credits.c:36: void state_credits_input(){
                            183 ;	---------------------------------
                            184 ; Function state_credits_input
                            185 ; ---------------------------------
   00E2                     186 _state_credits_input::
                            187 ;src/State_Credits.c:37: if(cpct_isAnyKeyPressed_f ()){
   00E2 CDr00r00      [17]  188 	call	_cpct_isAnyKeyPressed_f
   00E5 7D            [ 4]  189 	ld	a,l
   00E6 B7            [ 4]  190 	or	a, a
   00E7 C8            [11]  191 	ret	Z
                            192 ;src/State_Credits.c:38: statemanager_input_accepted();
   00E8 C3r00r00      [10]  193 	jp  _statemanager_input_accepted
                            194 ;src/State_Credits.c:42: void state_credits_update(){
                            195 ;	---------------------------------
                            196 ; Function state_credits_update
                            197 ; ---------------------------------
   00EB                     198 _state_credits_update::
                            199 ;src/State_Credits.c:43: statemanager_close_state();
   00EB C3r00r00      [10]  200 	jp  _statemanager_close_state
                            201 ;src/State_Credits.c:46: void state_credits_render(){
                            202 ;	---------------------------------
                            203 ; Function state_credits_render
                            204 ; ---------------------------------
   00EE                     205 _state_credits_render::
                            206 ;src/State_Credits.c:48: }
   00EE C9            [10]  207 	ret
                            208 ;src/State_Credits.c:50: void state_credits_exit(){
                            209 ;	---------------------------------
                            210 ; Function state_credits_exit
                            211 ; ---------------------------------
   00EF                     212 _state_credits_exit::
                            213 ;src/State_Credits.c:51: cpct_drawSolidBox(cpctm_screenPtr((u16)CPCT_VMEM_START,14,46),g_colors[1],52,92);
   00EF 21r01r00      [10]  214 	ld	hl, #(_g_colors + 0x0001) + 0
   00F2 46            [ 7]  215 	ld	b,(hl)
   00F3 21 34 5C      [10]  216 	ld	hl,#0x5C34
   00F6 E5            [11]  217 	push	hl
   00F7 C5            [11]  218 	push	bc
   00F8 33            [ 6]  219 	inc	sp
   00F9 21 9E F1      [10]  220 	ld	hl,#0xF19E
   00FC E5            [11]  221 	push	hl
   00FD CDr00r00      [17]  222 	call	_cpct_drawSolidBox
   0100 F1            [10]  223 	pop	af
   0101 F1            [10]  224 	pop	af
   0102 33            [ 6]  225 	inc	sp
   0103 C9            [10]  226 	ret
                            227 	.area _CODE
                            228 	.area _INITIALIZER
                            229 	.area _CABS (ABS)
