                              1 ;--------------------------------------------------------
                              2 ; File Created by SDCC : free open source ANSI-C Compiler
                              3 ; Version 3.5.5 #9498 (Linux)
                              4 ;--------------------------------------------------------
                              5 	.module StateManager
                              6 	.optsdcc -mz80
                              7 	
                              8 ;--------------------------------------------------------
                              9 ; Public variables in this module
                             10 ;--------------------------------------------------------
                             11 	.globl _statemanager_update_state
                             12 	.globl _statemanager_render_state
                             13 	.globl _statemanager_manage_input
                             14 	.globl _scan_input
                             15 	.globl _statemanager_change_state
                             16 	.globl _statemanager_drop_state
                             17 	.globl _cpct_waitVSYNC
                             18 	.globl _cpct_scanKeyboard_f
                             19 	.globl _last_keyboardStatusBuffer
                             20 	.globl _gameRunning
                             21 	.globl _inputReceived
                             22 	.globl _changeToState
                             23 	.globl _currentState
                             24 	.globl _closeState
                             25 	.globl _stateArray
                             26 	.globl _statemanager_input_accepted
                             27 	.globl _statemanager_set_state
                             28 	.globl _statemanager_close_state
                             29 	.globl _statemanager_exit_game
                             30 	.globl _statemanager_main_loop
                             31 ;--------------------------------------------------------
                             32 ; special function registers
                             33 ;--------------------------------------------------------
                             34 ;--------------------------------------------------------
                             35 ; ram data
                             36 ;--------------------------------------------------------
                             37 	.area _DATA
                             38 ;--------------------------------------------------------
                             39 ; ram data
                             40 ;--------------------------------------------------------
                             41 	.area _INITIALIZED
                             42 ;--------------------------------------------------------
                             43 ; absolute external ram data
                             44 ;--------------------------------------------------------
                             45 	.area _DABS (ABS)
                             46 ;--------------------------------------------------------
                             47 ; global & static initialisations
                             48 ;--------------------------------------------------------
                             49 	.area _HOME
                             50 	.area _GSINIT
                             51 	.area _GSFINAL
                             52 	.area _GSINIT
                             53 ;--------------------------------------------------------
                             54 ; Home
                             55 ;--------------------------------------------------------
                             56 	.area _HOME
                             57 	.area _HOME
                             58 ;--------------------------------------------------------
                             59 ; code
                             60 ;--------------------------------------------------------
                             61 	.area _CODE
                             62 ;src/StateManager.c:84: void statemanager_drop_state(){
                             63 ;	---------------------------------
                             64 ; Function statemanager_drop_state
                             65 ; ---------------------------------
   0000                      66 _statemanager_drop_state::
                             67 ;src/StateManager.c:85: if(closeState){
   0000 3Ar8Er00      [13]   68 	ld	a,(#_closeState + 0)
   0003 B7            [ 4]   69 	or	a, a
   0004 C8            [11]   70 	ret	Z
                             71 ;src/StateManager.c:86: stateArray[currentState].exitState();
   0005 01r56r00      [10]   72 	ld	bc,#_stateArray+0
   0008 21r8Fr00      [10]   73 	ld	hl,#_currentState + 0
   000B 5E            [ 7]   74 	ld	e, (hl)
   000C 16 00         [ 7]   75 	ld	d,#0x00
   000E 6B            [ 4]   76 	ld	l, e
   000F 62            [ 4]   77 	ld	h, d
   0010 29            [11]   78 	add	hl, hl
   0011 19            [11]   79 	add	hl, de
   0012 29            [11]   80 	add	hl, hl
   0013 19            [11]   81 	add	hl, de
   0014 29            [11]   82 	add	hl, hl
   0015 09            [11]   83 	add	hl,bc
   0016 11 0C 00      [10]   84 	ld	de, #0x000C
   0019 19            [11]   85 	add	hl, de
   001A 5E            [ 7]   86 	ld	e,(hl)
   001B 23            [ 6]   87 	inc	hl
   001C 66            [ 7]   88 	ld	h,(hl)
   001D C5            [11]   89 	push	bc
   001E 6B            [ 4]   90 	ld	l, e
   001F CDr00r00      [17]   91 	call	___sdcc_call_hl
   0022 C1            [10]   92 	pop	bc
                             93 ;src/StateManager.c:87: *(u8*)&currentState = stateArray[currentState].lastStateid;
   0023 21r8Fr00      [10]   94 	ld	hl,#_currentState + 0
   0026 5E            [ 7]   95 	ld	e, (hl)
   0027 16 00         [ 7]   96 	ld	d,#0x00
   0029 6B            [ 4]   97 	ld	l, e
   002A 62            [ 4]   98 	ld	h, d
   002B 29            [11]   99 	add	hl, hl
   002C 19            [11]  100 	add	hl, de
   002D 29            [11]  101 	add	hl, hl
   002E 19            [11]  102 	add	hl, de
   002F 29            [11]  103 	add	hl, hl
   0030 09            [11]  104 	add	hl,bc
   0031 23            [ 6]  105 	inc	hl
   0032 5E            [ 7]  106 	ld	e,(hl)
   0033 21r8Fr00      [10]  107 	ld	hl,#_currentState
   0036 73            [ 7]  108 	ld	(hl),e
                            109 ;src/StateManager.c:88: stateArray[currentState].returnState();
   0037 21r8Fr00      [10]  110 	ld	hl,#_currentState + 0
   003A 5E            [ 7]  111 	ld	e, (hl)
   003B 16 00         [ 7]  112 	ld	d,#0x00
   003D 6B            [ 4]  113 	ld	l, e
   003E 62            [ 4]  114 	ld	h, d
   003F 29            [11]  115 	add	hl, hl
   0040 19            [11]  116 	add	hl, de
   0041 29            [11]  117 	add	hl, hl
   0042 19            [11]  118 	add	hl, de
   0043 29            [11]  119 	add	hl, hl
   0044 09            [11]  120 	add	hl,bc
   0045 11 04 00      [10]  121 	ld	de, #0x0004
   0048 19            [11]  122 	add	hl, de
   0049 7E            [ 7]  123 	ld	a, (hl)
   004A 23            [ 6]  124 	inc	hl
   004B 66            [ 7]  125 	ld	h,(hl)
   004C 6F            [ 4]  126 	ld	l,a
   004D CDr00r00      [17]  127 	call	___sdcc_call_hl
                            128 ;src/StateManager.c:89: *(u8*)&closeState=0;
   0050 21r8Er00      [10]  129 	ld	hl,#_closeState
   0053 36 00         [10]  130 	ld	(hl),#0x00
   0055 C9            [10]  131 	ret
   0056                     132 _stateArray:
   0056 00                  133 	.db #0x00	; 0
   0057 00                  134 	.db #0x00	; 0
   0058r00r00               135 	.dw _state_mainmenu_enter
   005Ar00r00               136 	.dw _state_mainmenu_return
   005Cr00r00               137 	.dw _state_mainmenu_input
   005Er00r00               138 	.dw _state_mainmenu_update
   0060r00r00               139 	.dw _state_mainmenu_render
   0062r00r00               140 	.dw _state_mainmenu_exit
   0064 01                  141 	.db #0x01	; 1
   0065 00                  142 	.db #0x00	; 0
   0066r00r00               143 	.dw _state_ingame_enter
   0068r00r00               144 	.dw _state_ingame_return
   006Ar00r00               145 	.dw _state_ingame_input
   006Cr00r00               146 	.dw _state_ingame_update
   006Er00r00               147 	.dw _state_ingame_render
   0070r00r00               148 	.dw _state_ingame_exit
   0072 02                  149 	.db #0x02	; 2
   0073 00                  150 	.db #0x00	; 0
   0074r00r00               151 	.dw _state_pausemenu_enter
   0076r00r00               152 	.dw _state_pausemenu_return
   0078r00r00               153 	.dw _state_pausemenu_input
   007Ar00r00               154 	.dw _state_pausemenu_update
   007Cr00r00               155 	.dw _state_pausemenu_render
   007Er00r00               156 	.dw _state_pausemenu_exit
   0080 03                  157 	.db #0x03	; 3
   0081 00                  158 	.db #0x00	; 0
   0082r00r00               159 	.dw _state_loadlevel_enter
   0084r00r00               160 	.dw _state_loadlevel_return
   0086r00r00               161 	.dw _state_loadlevel_input
   0088r00r00               162 	.dw _state_loadlevel_update
   008Ar00r00               163 	.dw _state_loadlevel_render
   008Cr00r00               164 	.dw _state_loadlevel_exit
   008E                     165 _closeState:
   008E 00                  166 	.db #0x00	; 0
   008F                     167 _currentState:
   008F 00                  168 	.db #0x00	; 0
   0090                     169 _changeToState:
   0090 00                  170 	.db #0x00	; 0
   0091                     171 _inputReceived:
   0091 00                  172 	.db #0x00	; 0
   0092                     173 _gameRunning:
   0092 01                  174 	.db #0x01	; 1
   0093                     175 _last_keyboardStatusBuffer:
   0093 FF                  176 	.db #0xFF	; 255
   0094 FF                  177 	.db #0xFF	; 255
   0095 FF                  178 	.db #0xFF	; 255
   0096 FF                  179 	.db #0xFF	; 255
   0097 FF                  180 	.db #0xFF	; 255
   0098 FF                  181 	.db #0xFF	; 255
   0099 FF                  182 	.db #0xFF	; 255
   009A FF                  183 	.db #0xFF	; 255
   009B FF                  184 	.db #0xFF	; 255
   009C FF                  185 	.db #0xFF	; 255
                            186 ;src/StateManager.c:93: void statemanager_change_state(){
                            187 ;	---------------------------------
                            188 ; Function statemanager_change_state
                            189 ; ---------------------------------
   009D                     190 _statemanager_change_state::
                            191 ;src/StateManager.c:94: if(changeToState){
   009D 21r90r00      [10]  192 	ld	hl,#_changeToState + 0
   00A0 4E            [ 7]  193 	ld	c, (hl)
   00A1 3Ar90r00      [13]  194 	ld	a,(#_changeToState + 0)
   00A4 B7            [ 4]  195 	or	a, a
   00A5 C8            [11]  196 	ret	Z
                            197 ;src/StateManager.c:95: *(u8*)&(stateArray[changeToState-1].lastStateid) = currentState;
   00A6 11r56r00      [10]  198 	ld	de,#_stateArray+0
   00A9 0D            [ 4]  199 	dec	c
   00AA 06 00         [ 7]  200 	ld	b,#0x00
   00AC 69            [ 4]  201 	ld	l, c
   00AD 60            [ 4]  202 	ld	h, b
   00AE 29            [11]  203 	add	hl, hl
   00AF 09            [11]  204 	add	hl, bc
   00B0 29            [11]  205 	add	hl, hl
   00B1 09            [11]  206 	add	hl, bc
   00B2 29            [11]  207 	add	hl, hl
   00B3 19            [11]  208 	add	hl,de
   00B4 23            [ 6]  209 	inc	hl
   00B5 FD 21r8Fr00   [14]  210 	ld	iy,#_currentState
   00B9 FD 4E 00      [19]  211 	ld	c,0 (iy)
   00BC 71            [ 7]  212 	ld	(hl),c
                            213 ;src/StateManager.c:96: *(u8*)&currentState = changeToState-1;
   00BD 21r8Fr00      [10]  214 	ld	hl,#_currentState+0
   00C0 FD 21r90r00   [14]  215 	ld	iy,#_changeToState
   00C4 FD 4E 00      [19]  216 	ld	c,0 (iy)
   00C7 0D            [ 4]  217 	dec	c
   00C8 71            [ 7]  218 	ld	(hl),c
                            219 ;src/StateManager.c:97: stateArray[currentState].enterState();
   00C9 21r8Fr00      [10]  220 	ld	hl,#_currentState + 0
   00CC 4E            [ 7]  221 	ld	c, (hl)
   00CD 06 00         [ 7]  222 	ld	b,#0x00
   00CF 69            [ 4]  223 	ld	l, c
   00D0 60            [ 4]  224 	ld	h, b
   00D1 29            [11]  225 	add	hl, hl
   00D2 09            [11]  226 	add	hl, bc
   00D3 29            [11]  227 	add	hl, hl
   00D4 09            [11]  228 	add	hl, bc
   00D5 29            [11]  229 	add	hl, hl
   00D6 19            [11]  230 	add	hl,de
   00D7 23            [ 6]  231 	inc	hl
   00D8 23            [ 6]  232 	inc	hl
   00D9 4E            [ 7]  233 	ld	c,(hl)
   00DA 23            [ 6]  234 	inc	hl
   00DB 66            [ 7]  235 	ld	h,(hl)
   00DC 69            [ 4]  236 	ld	l, c
   00DD CDr00r00      [17]  237 	call	___sdcc_call_hl
                            238 ;src/StateManager.c:98: *(u8*)&changeToState = 0;
   00E0 21r90r00      [10]  239 	ld	hl,#_changeToState
   00E3 36 00         [10]  240 	ld	(hl),#0x00
   00E5 C9            [10]  241 	ret
                            242 ;src/StateManager.c:102: void statemanager_input_accepted(){
                            243 ;	---------------------------------
                            244 ; Function statemanager_input_accepted
                            245 ; ---------------------------------
   00E6                     246 _statemanager_input_accepted::
                            247 ;src/StateManager.c:103: *(u8*)&inputReceived=1;
   00E6 21r91r00      [10]  248 	ld	hl,#_inputReceived
   00E9 36 01         [10]  249 	ld	(hl),#0x01
   00EB C9            [10]  250 	ret
                            251 ;src/StateManager.c:106: void statemanager_set_state(u8 state){
                            252 ;	---------------------------------
                            253 ; Function statemanager_set_state
                            254 ; ---------------------------------
   00EC                     255 _statemanager_set_state::
                            256 ;src/StateManager.c:107: *(u8*)&changeToState = state+1;
   00EC 01r90r00      [10]  257 	ld	bc,#_changeToState+0
   00EF 21 02 00      [10]  258 	ld	hl, #2+0
   00F2 39            [11]  259 	add	hl, sp
   00F3 7E            [ 7]  260 	ld	a, (hl)
   00F4 3C            [ 4]  261 	inc	a
   00F5 02            [ 7]  262 	ld	(bc),a
   00F6 C9            [10]  263 	ret
                            264 ;src/StateManager.c:110: void scan_input(){
                            265 ;	---------------------------------
                            266 ; Function scan_input
                            267 ; ---------------------------------
   00F7                     268 _scan_input::
   00F7 DD E5         [15]  269 	push	ix
   00F9 DD 21 00 00   [14]  270 	ld	ix,#0
   00FD DD 39         [15]  271 	add	ix,sp
   00FF F5            [11]  272 	push	af
   0100 3B            [ 6]  273 	dec	sp
                            274 ;src/StateManager.c:111: u8 t,n=10, anyKeyPressed=0xFF;
   0101 DD 36 FD FF   [19]  275 	ld	-3 (ix),#0xFF
                            276 ;src/StateManager.c:112: u8* currentStatus=(cpct_keyboardStatusBuffer+n);
                            277 ;src/StateManager.c:113: u8* lastStatus=(((u8*)last_keyboardStatusBuffer)+n);
                            278 ;src/StateManager.c:115: cpct_scanKeyboard_f();
   0105 CDr00r00      [17]  279 	call	_cpct_scanKeyboard_f
                            280 ;src/StateManager.c:116: while(n){
   0108 1E 0A         [ 7]  281 	ld	e,#0x0A
   010A 01r0Ar00      [10]  282 	ld	bc,#(_cpct_keyboardStatusBuffer + 0x000a)
   010D FD 21r9Dr00   [14]  283 	ld	iy,#(_last_keyboardStatusBuffer + 0x000a)
   0111                     284 00101$:
   0111 7B            [ 4]  285 	ld	a,e
   0112 B7            [ 4]  286 	or	a, a
   0113 28 24         [12]  287 	jr	Z,00103$
                            288 ;src/StateManager.c:117: --n;
   0115 1D            [ 4]  289 	dec	e
                            290 ;src/StateManager.c:118: --currentStatus;
   0116 0B            [ 6]  291 	dec	bc
                            292 ;src/StateManager.c:119: --lastStatus;
   0117 FD 2B         [10]  293 	dec	iy
                            294 ;src/StateManager.c:121: t=*(currentStatus);
   0119 0A            [ 7]  295 	ld	a,(bc)
   011A 57            [ 4]  296 	ld	d,a
                            297 ;src/StateManager.c:122: anyKeyPressed&=t;
   011B DD 7E FD      [19]  298 	ld	a,-3 (ix)
   011E A2            [ 4]  299 	and	a, d
   011F DD 77 FD      [19]  300 	ld	-3 (ix),a
                            301 ;src/StateManager.c:123: *currentStatus=((*lastStatus)|(~t));
   0122 FD 7E 00      [19]  302 	ld	a, 0 (iy)
   0125 DD 77 FF      [19]  303 	ld	-1 (ix),a
   0128 7A            [ 4]  304 	ld	a,d
   0129 2F            [ 4]  305 	cpl
   012A DD 77 FE      [19]  306 	ld	-2 (ix),a
   012D DD 7E FF      [19]  307 	ld	a,-1 (ix)
   0130 DD B6 FE      [19]  308 	or	a, -2 (ix)
   0133 02            [ 7]  309 	ld	(bc),a
                            310 ;src/StateManager.c:124: *lastStatus=t;
   0134 FD 72 00      [19]  311 	ld	0 (iy), d
   0137 18 D8         [12]  312 	jr	00101$
   0139                     313 00103$:
                            314 ;src/StateManager.c:128: if(~anyKeyPressed) ++r_counter;
   0139 DD 7E FD      [19]  315 	ld	a, -3 (ix)
   013C 06 00         [ 7]  316 	ld	b, #0x00
   013E 2F            [ 4]  317 	cpl
   013F 4F            [ 4]  318 	ld	c,a
   0140 78            [ 4]  319 	ld	a,b
   0141 2F            [ 4]  320 	cpl
   0142 B1            [ 4]  321 	or	a,c
   0143 28 04         [12]  322 	jr	Z,00106$
   0145 21r00r00      [10]  323 	ld	hl, #_r_counter+0
   0148 34            [11]  324 	inc	(hl)
   0149                     325 00106$:
   0149 DD F9         [10]  326 	ld	sp, ix
   014B DD E1         [14]  327 	pop	ix
   014D C9            [10]  328 	ret
                            329 ;src/StateManager.c:131: void statemanager_manage_input(){
                            330 ;	---------------------------------
                            331 ; Function statemanager_manage_input
                            332 ; ---------------------------------
   014E                     333 _statemanager_manage_input::
                            334 ;src/StateManager.c:132: while(!inputReceived){
   014E                     335 00101$:
   014E 3Ar91r00      [13]  336 	ld	a,(#_inputReceived + 0)
   0151 B7            [ 4]  337 	or	a, a
   0152 20 21         [12]  338 	jr	NZ,00103$
                            339 ;src/StateManager.c:133: scan_input();
   0154 CDrF7r00      [17]  340 	call	_scan_input
                            341 ;src/StateManager.c:134: stateArray[currentState].inputState();
   0157 21r8Fr00      [10]  342 	ld	hl,#_currentState + 0
   015A 4E            [ 7]  343 	ld	c, (hl)
   015B 06 00         [ 7]  344 	ld	b,#0x00
   015D 69            [ 4]  345 	ld	l, c
   015E 60            [ 4]  346 	ld	h, b
   015F 29            [11]  347 	add	hl, hl
   0160 09            [11]  348 	add	hl, bc
   0161 29            [11]  349 	add	hl, hl
   0162 09            [11]  350 	add	hl, bc
   0163 29            [11]  351 	add	hl, hl
   0164 11r56r00      [10]  352 	ld	de,#_stateArray
   0167 19            [11]  353 	add	hl,de
   0168 11 06 00      [10]  354 	ld	de, #0x0006
   016B 19            [11]  355 	add	hl, de
   016C 4E            [ 7]  356 	ld	c,(hl)
   016D 23            [ 6]  357 	inc	hl
   016E 66            [ 7]  358 	ld	h,(hl)
   016F 69            [ 4]  359 	ld	l, c
   0170 CDr00r00      [17]  360 	call	___sdcc_call_hl
   0173 18 D9         [12]  361 	jr	00101$
   0175                     362 00103$:
                            363 ;src/StateManager.c:136: *(u8*)&inputReceived=0;
   0175 21r91r00      [10]  364 	ld	hl,#_inputReceived
   0178 36 00         [10]  365 	ld	(hl),#0x00
   017A C9            [10]  366 	ret
                            367 ;src/StateManager.c:139: void statemanager_render_state(){
                            368 ;	---------------------------------
                            369 ; Function statemanager_render_state
                            370 ; ---------------------------------
   017B                     371 _statemanager_render_state::
                            372 ;src/StateManager.c:140: cpct_waitVSYNC();
   017B CDr00r00      [17]  373 	call	_cpct_waitVSYNC
                            374 ;src/StateManager.c:141: stateArray[currentState].renderState();
   017E 01r56r00      [10]  375 	ld	bc,#_stateArray+0
   0181 21r8Fr00      [10]  376 	ld	hl,#_currentState + 0
   0184 5E            [ 7]  377 	ld	e, (hl)
   0185 16 00         [ 7]  378 	ld	d,#0x00
   0187 6B            [ 4]  379 	ld	l, e
   0188 62            [ 4]  380 	ld	h, d
   0189 29            [11]  381 	add	hl, hl
   018A 19            [11]  382 	add	hl, de
   018B 29            [11]  383 	add	hl, hl
   018C 19            [11]  384 	add	hl, de
   018D 29            [11]  385 	add	hl, hl
   018E 09            [11]  386 	add	hl,bc
   018F 11 0A 00      [10]  387 	ld	de, #0x000A
   0192 19            [11]  388 	add	hl, de
   0193 4E            [ 7]  389 	ld	c,(hl)
   0194 23            [ 6]  390 	inc	hl
   0195 66            [ 7]  391 	ld	h,(hl)
   0196 69            [ 4]  392 	ld	l, c
   0197 C3r00r00      [10]  393 	jp  ___sdcc_call_hl
                            394 ;src/StateManager.c:144: void statemanager_close_state(){
                            395 ;	---------------------------------
                            396 ; Function statemanager_close_state
                            397 ; ---------------------------------
   019A                     398 _statemanager_close_state::
                            399 ;src/StateManager.c:145: *(u8*)&closeState=1;
   019A 21r8Er00      [10]  400 	ld	hl,#_closeState
   019D 36 01         [10]  401 	ld	(hl),#0x01
   019F C9            [10]  402 	ret
                            403 ;src/StateManager.c:148: void statemanager_update_state(){
                            404 ;	---------------------------------
                            405 ; Function statemanager_update_state
                            406 ; ---------------------------------
   01A0                     407 _statemanager_update_state::
                            408 ;src/StateManager.c:149: stateArray[currentState].updateState();
   01A0 01r56r00      [10]  409 	ld	bc,#_stateArray+0
   01A3 21r8Fr00      [10]  410 	ld	hl,#_currentState + 0
   01A6 5E            [ 7]  411 	ld	e, (hl)
   01A7 16 00         [ 7]  412 	ld	d,#0x00
   01A9 6B            [ 4]  413 	ld	l, e
   01AA 62            [ 4]  414 	ld	h, d
   01AB 29            [11]  415 	add	hl, hl
   01AC 19            [11]  416 	add	hl, de
   01AD 29            [11]  417 	add	hl, hl
   01AE 19            [11]  418 	add	hl, de
   01AF 29            [11]  419 	add	hl, hl
   01B0 09            [11]  420 	add	hl,bc
   01B1 11 08 00      [10]  421 	ld	de, #0x0008
   01B4 19            [11]  422 	add	hl, de
   01B5 4E            [ 7]  423 	ld	c,(hl)
   01B6 23            [ 6]  424 	inc	hl
   01B7 66            [ 7]  425 	ld	h,(hl)
   01B8 69            [ 4]  426 	ld	l, c
   01B9 C3r00r00      [10]  427 	jp  ___sdcc_call_hl
                            428 ;src/StateManager.c:152: void statemanager_exit_game(){
                            429 ;	---------------------------------
                            430 ; Function statemanager_exit_game
                            431 ; ---------------------------------
   01BC                     432 _statemanager_exit_game::
                            433 ;src/StateManager.c:153: *(u8*)&gameRunning=0;
   01BC 21r92r00      [10]  434 	ld	hl,#_gameRunning
   01BF 36 00         [10]  435 	ld	(hl),#0x00
   01C1 C9            [10]  436 	ret
                            437 ;src/StateManager.c:156: void statemanager_main_loop(){
                            438 ;	---------------------------------
                            439 ; Function statemanager_main_loop
                            440 ; ---------------------------------
   01C2                     441 _statemanager_main_loop::
                            442 ;src/StateManager.c:157: while(gameRunning) {
   01C2                     443 00101$:
   01C2 3Ar92r00      [13]  444 	ld	a,(#_gameRunning + 0)
   01C5 B7            [ 4]  445 	or	a, a
   01C6 C8            [11]  446 	ret	Z
                            447 ;src/StateManager.c:158: statemanager_drop_state();
   01C7 CDr00r00      [17]  448 	call	_statemanager_drop_state
                            449 ;src/StateManager.c:159: statemanager_change_state();
   01CA CDr9Dr00      [17]  450 	call	_statemanager_change_state
                            451 ;src/StateManager.c:160: statemanager_manage_input();
   01CD CDr4Er01      [17]  452 	call	_statemanager_manage_input
                            453 ;src/StateManager.c:161: statemanager_update_state();
   01D0 CDrA0r01      [17]  454 	call	_statemanager_update_state
                            455 ;src/StateManager.c:162: statemanager_render_state();
   01D3 CDr7Br01      [17]  456 	call	_statemanager_render_state
   01D6 18 EA         [12]  457 	jr	00101$
                            458 	.area _CODE
                            459 	.area _INITIALIZER
                            460 	.area _CABS (ABS)
