                              1 ;--------------------------------------------------------
                              2 ; File Created by SDCC : free open source ANSI-C Compiler
                              3 ; Version 3.5.5 #9498 (Linux)
                              4 ;--------------------------------------------------------
                              5 	.module Textures
                              6 	.optsdcc -mz80
                              7 	
                              8 ;--------------------------------------------------------
                              9 ; Public variables in this module
                             10 ;--------------------------------------------------------
                             11 	.globl _uncompress_item_textures
                             12 	.globl _uncompress_texture_rle
                             13 	.globl _enemy_textures_length
                             14 	.globl _enemy_textures
                             15 	.globl _theme_textures_length
                             16 	.globl _theme_textures
                             17 	.globl _uncompress_theme_textures
                             18 	.globl _uncompress_enemy_textures
                             19 ;--------------------------------------------------------
                             20 ; special function registers
                             21 ;--------------------------------------------------------
                             22 ;--------------------------------------------------------
                             23 ; ram data
                             24 ;--------------------------------------------------------
                             25 	.area _DATA
                             26 ;--------------------------------------------------------
                             27 ; ram data
                             28 ;--------------------------------------------------------
                             29 	.area _INITIALIZED
                             30 ;--------------------------------------------------------
                             31 ; absolute external ram data
                             32 ;--------------------------------------------------------
                             33 	.area _DABS (ABS)
                             34 ;--------------------------------------------------------
                             35 ; global & static initialisations
                             36 ;--------------------------------------------------------
                             37 	.area _HOME
                             38 	.area _GSINIT
                             39 	.area _GSFINAL
                             40 	.area _GSINIT
                             41 ;--------------------------------------------------------
                             42 ; Home
                             43 ;--------------------------------------------------------
                             44 	.area _HOME
                             45 	.area _HOME
                             46 ;--------------------------------------------------------
                             47 ; code
                             48 ;--------------------------------------------------------
                             49 	.area _CODE
                             50 ;src/Textures.c:40: void uncompress_texture_rle(u8* position, u8* texture_set, u16 length){
                             51 ;	---------------------------------
                             52 ; Function uncompress_texture_rle
                             53 ; ---------------------------------
   0000                      54 _uncompress_texture_rle::
   0000 DD E5         [15]   55 	push	ix
   0002 DD 21 00 00   [14]   56 	ld	ix,#0
   0006 DD 39         [15]   57 	add	ix,sp
   0008 3B            [ 6]   58 	dec	sp
                             59 ;src/Textures.c:43: while(length){
   0009 DD 4E 06      [19]   60 	ld	c,6 (ix)
   000C DD 46 07      [19]   61 	ld	b,7 (ix)
   000F DD 5E 08      [19]   62 	ld	e,8 (ix)
   0012 DD 56 09      [19]   63 	ld	d,9 (ix)
   0015                      64 00104$:
   0015 7A            [ 4]   65 	ld	a,d
   0016 B3            [ 4]   66 	or	a,e
   0017 28 47         [12]   67 	jr	Z,00107$
                             68 ;src/Textures.c:44: value = (*texture_set)&0x0F;
   0019 0A            [ 7]   69 	ld	a,(bc)
   001A 67            [ 4]   70 	ld	h,a
   001B E6 0F         [ 7]   71 	and	a, #0x0F
   001D 6F            [ 4]   72 	ld	l,a
                             73 ;src/Textures.c:45: counter = ((*texture_set)>>4)+1;
   001E 7C            [ 4]   74 	ld	a,h
   001F 07            [ 4]   75 	rlca
   0020 07            [ 4]   76 	rlca
   0021 07            [ 4]   77 	rlca
   0022 07            [ 4]   78 	rlca
   0023 E6 0F         [ 7]   79 	and	a,#0x0F
   0025 3C            [ 4]   80 	inc	a
   0026 DD 77 FF      [19]   81 	ld	-1 (ix),a
                             82 ;src/Textures.c:46: while(counter){
   0029 3Er00         [ 7]   83 	ld	a,#<(_g_colors)
   002B 85            [ 4]   84 	add	a, l
   002C 6F            [ 4]   85 	ld	l,a
   002D 3Es00         [ 7]   86 	ld	a,#>(_g_colors)
   002F CE 00         [ 7]   87 	adc	a, #0x00
   0031 67            [ 4]   88 	ld	h,a
   0032 E5            [11]   89 	push	hl
   0033 DD 6E 04      [19]   90 	ld	l,4 (ix)
   0036 DD 66 05      [19]   91 	ld	h,5 (ix)
   0039 E5            [11]   92 	push	hl
   003A FD E1         [14]   93 	pop	iy
   003C E1            [10]   94 	pop	hl
   003D                      95 00101$:
   003D DD 7E FF      [19]   96 	ld	a,-1 (ix)
   0040 B7            [ 4]   97 	or	a, a
   0041 28 0B         [12]   98 	jr	Z,00113$
                             99 ;src/Textures.c:47: *position=g_colors[value];
   0043 7E            [ 7]  100 	ld	a,(hl)
   0044 FD 77 00      [19]  101 	ld	0 (iy), a
                            102 ;src/Textures.c:48: ++position;
   0047 FD 23         [10]  103 	inc	iy
                            104 ;src/Textures.c:49: --counter;
   0049 DD 35 FF      [23]  105 	dec	-1 (ix)
   004C 18 EF         [12]  106 	jr	00101$
   004E                     107 00113$:
   004E FD E5         [15]  108 	push	iy
   0050 F1            [10]  109 	pop	af
   0051 DD 77 05      [19]  110 	ld	5 (ix),a
   0054 FD E5         [15]  111 	push	iy
   0056 3B            [ 6]  112 	dec	sp
   0057 F1            [10]  113 	pop	af
   0058 33            [ 6]  114 	inc	sp
   0059 DD 77 04      [19]  115 	ld	4 (ix),a
                            116 ;src/Textures.c:51: ++texture_set;
   005C 03            [ 6]  117 	inc	bc
                            118 ;src/Textures.c:52: --length;
   005D 1B            [ 6]  119 	dec	de
   005E 18 B5         [12]  120 	jr	00104$
   0060                     121 00107$:
   0060 33            [ 6]  122 	inc	sp
   0061 DD E1         [14]  123 	pop	ix
   0063 C9            [10]  124 	ret
   0064                     125 _theme_textures:
   0064r00r00               126 	.dw _level0_walls
   0066r00r00               127 	.dw _level1_walls
   0068r00r00               128 	.dw _level2_walls
   006Ar00r00               129 	.dw _level3_walls
   006C                     130 _theme_textures_length:
   006C BD 05               131 	.dw #0x05BD
   006E 55 08               132 	.dw #0x0855
   0070 2E 08               133 	.dw #0x082E
   0072 F7 06               134 	.dw #0x06F7
   0074                     135 _enemy_textures:
   0074r00r00               136 	.dw _level0_enemies
   0076r00r00               137 	.dw _level1_enemies
   0078r00r00               138 	.dw _level2_enemies
   007Ar00r00               139 	.dw _level3_enemies
   007Cr00r00               140 	.dw _king_enemy
   007E                     141 _enemy_textures_length:
   007E 84 00               142 	.dw #0x0084
   0080 AB 00               143 	.dw #0x00AB
   0082 7B 00               144 	.dw #0x007B
   0084 B7 00               145 	.dw #0x00B7
   0086 B8 00               146 	.dw #0x00B8
                            147 ;src/Textures.c:56: void uncompress_theme_textures(u8 level) {//TODO implement
                            148 ;	---------------------------------
                            149 ; Function uncompress_theme_textures
                            150 ; ---------------------------------
   0088                     151 _uncompress_theme_textures::
   0088 DD E5         [15]  152 	push	ix
   008A DD 21 00 00   [14]  153 	ld	ix,#0
   008E DD 39         [15]  154 	add	ix,sp
                            155 ;src/Textures.c:57: uncompress_texture_rle((u8*)UNCOMPRESSED_TEXTURES, theme_textures[level], theme_textures_length[level]);    
   0090 DD 6E 04      [19]  156 	ld	l,4 (ix)
   0093 26 00         [ 7]  157 	ld	h,#0x00
   0095 29            [11]  158 	add	hl, hl
   0096 4D            [ 4]  159 	ld	c, l
   0097 44            [ 4]  160 	ld	b, h
   0098 21r6Cr00      [10]  161 	ld	hl,#_theme_textures_length
   009B 09            [11]  162 	add	hl,bc
   009C 5E            [ 7]  163 	ld	e,(hl)
   009D 23            [ 6]  164 	inc	hl
   009E 56            [ 7]  165 	ld	d,(hl)
   009F 21r64r00      [10]  166 	ld	hl,#_theme_textures+0
   00A2 09            [11]  167 	add	hl,bc
   00A3 4E            [ 7]  168 	ld	c,(hl)
   00A4 23            [ 6]  169 	inc	hl
   00A5 46            [ 7]  170 	ld	b,(hl)
   00A6 D5            [11]  171 	push	de
   00A7 C5            [11]  172 	push	bc
   00A8 21 D0 8C      [10]  173 	ld	hl,#0x8CD0
   00AB E5            [11]  174 	push	hl
   00AC CDr00r00      [17]  175 	call	_uncompress_texture_rle
   00AF 21 06 00      [10]  176 	ld	hl,#6
   00B2 39            [11]  177 	add	hl,sp
   00B3 F9            [ 6]  178 	ld	sp,hl
   00B4 DD E1         [14]  179 	pop	ix
   00B6 C9            [10]  180 	ret
                            181 ;src/Textures.c:61: void uncompress_enemy_textures(u8 level) {
                            182 ;	---------------------------------
                            183 ; Function uncompress_enemy_textures
                            184 ; ---------------------------------
   00B7                     185 _uncompress_enemy_textures::
   00B7 DD E5         [15]  186 	push	ix
   00B9 DD 21 00 00   [14]  187 	ld	ix,#0
   00BD DD 39         [15]  188 	add	ix,sp
                            189 ;src/Textures.c:62: if(camelot_warriors_mode){
   00BF 3Ar00r00      [13]  190 	ld	a,(#_camelot_warriors_mode + 0)
   00C2 B7            [ 4]  191 	or	a, a
   00C3 28 2A         [12]  192 	jr	Z,00102$
                            193 ;src/Textures.c:63: uncompress_texture_rle((u8*)UNCOMPRESSED_RAT_TEXTURE,camelot_enemy,camelot_enemy_LENGTH);
   00C5 21 7B 00      [10]  194 	ld	hl,#0x007B
   00C8 E5            [11]  195 	push	hl
   00C9 21r00r00      [10]  196 	ld	hl,#_camelot_enemy
   00CC E5            [11]  197 	push	hl
   00CD 21 D0 A0      [10]  198 	ld	hl,#0xA0D0
   00D0 E5            [11]  199 	push	hl
   00D1 CDr00r00      [17]  200 	call	_uncompress_texture_rle
   00D4 21 06 00      [10]  201 	ld	hl,#6
   00D7 39            [11]  202 	add	hl,sp
   00D8 F9            [ 6]  203 	ld	sp,hl
                            204 ;src/Textures.c:64: uncompress_texture_rle((u8*)UNCOMPRESSED_ENEMY_TEXTURE,camelot_enemy,camelot_enemy_LENGTH);
   00D9 21 7B 00      [10]  205 	ld	hl,#0x007B
   00DC E5            [11]  206 	push	hl
   00DD 21r00r00      [10]  207 	ld	hl,#_camelot_enemy
   00E0 E5            [11]  208 	push	hl
   00E1 21 10 A3      [10]  209 	ld	hl,#0xA310
   00E4 E5            [11]  210 	push	hl
   00E5 CDr00r00      [17]  211 	call	_uncompress_texture_rle
   00E8 21 06 00      [10]  212 	ld	hl,#6
   00EB 39            [11]  213 	add	hl,sp
   00EC F9            [ 6]  214 	ld	sp,hl
   00ED 18 38         [12]  215 	jr	00104$
   00EF                     216 00102$:
                            217 ;src/Textures.c:67: uncompress_texture_rle((u8*)UNCOMPRESSED_RAT_TEXTURE,rat_enemy,rat_enemy_LENGTH);
   00EF 21 6C 00      [10]  218 	ld	hl,#0x006C
   00F2 E5            [11]  219 	push	hl
   00F3 21r00r00      [10]  220 	ld	hl,#_rat_enemy
   00F6 E5            [11]  221 	push	hl
   00F7 21 D0 A0      [10]  222 	ld	hl,#0xA0D0
   00FA E5            [11]  223 	push	hl
   00FB CDr00r00      [17]  224 	call	_uncompress_texture_rle
   00FE 21 06 00      [10]  225 	ld	hl,#6
   0101 39            [11]  226 	add	hl,sp
   0102 F9            [ 6]  227 	ld	sp,hl
                            228 ;src/Textures.c:68: uncompress_texture_rle((u8*)UNCOMPRESSED_ENEMY_TEXTURE,enemy_textures[level],enemy_textures_length[level]);
   0103 DD 6E 04      [19]  229 	ld	l,4 (ix)
   0106 26 00         [ 7]  230 	ld	h,#0x00
   0108 29            [11]  231 	add	hl, hl
   0109 4D            [ 4]  232 	ld	c, l
   010A 44            [ 4]  233 	ld	b, h
   010B 21r7Er00      [10]  234 	ld	hl,#_enemy_textures_length
   010E 09            [11]  235 	add	hl,bc
   010F 5E            [ 7]  236 	ld	e,(hl)
   0110 23            [ 6]  237 	inc	hl
   0111 56            [ 7]  238 	ld	d,(hl)
   0112 21r74r00      [10]  239 	ld	hl,#_enemy_textures+0
   0115 09            [11]  240 	add	hl,bc
   0116 4E            [ 7]  241 	ld	c,(hl)
   0117 23            [ 6]  242 	inc	hl
   0118 46            [ 7]  243 	ld	b,(hl)
   0119 D5            [11]  244 	push	de
   011A C5            [11]  245 	push	bc
   011B 21 10 A3      [10]  246 	ld	hl,#0xA310
   011E E5            [11]  247 	push	hl
   011F CDr00r00      [17]  248 	call	_uncompress_texture_rle
   0122 21 06 00      [10]  249 	ld	hl,#6
   0125 39            [11]  250 	add	hl,sp
   0126 F9            [ 6]  251 	ld	sp,hl
   0127                     252 00104$:
   0127 DD E1         [14]  253 	pop	ix
   0129 C9            [10]  254 	ret
                            255 ;src/Textures.c:72: void uncompress_item_textures(){
                            256 ;	---------------------------------
                            257 ; Function uncompress_item_textures
                            258 ; ---------------------------------
   012A                     259 _uncompress_item_textures::
                            260 ;src/Textures.c:73: uncompress_texture_rle((u8*)UNCOMPRESSED_OBJECT_TEXTURES, items_tileset, items_tileset_LENGTH);
   012A 21 4A 01      [10]  261 	ld	hl,#0x014A
   012D E5            [11]  262 	push	hl
   012E 21r00r00      [10]  263 	ld	hl,#_items_tileset
   0131 E5            [11]  264 	push	hl
   0132 21 50 A5      [10]  265 	ld	hl,#0xA550
   0135 E5            [11]  266 	push	hl
   0136 CDr00r00      [17]  267 	call	_uncompress_texture_rle
   0139 21 06 00      [10]  268 	ld	hl,#6
   013C 39            [11]  269 	add	hl,sp
   013D F9            [ 6]  270 	ld	sp,hl
   013E C9            [10]  271 	ret
                            272 	.area _CODE
                            273 	.area _INITIALIZER
                            274 	.area _CABS (ABS)
